	.file	"factor.2_cf_test.cpp"
	.text
	.section	.text._ZN6fastio7ioflushEv,"axG",@progbits,_ZN6fastio7ioflushEv,comdat
	.p2align 4
	.weak	_ZN6fastio7ioflushEv
	.type	_ZN6fastio7ioflushEv, @function
_ZN6fastio7ioflushEv:
.LFB6957:
	.cfi_startproc
	endbr64
	pushq	%rbx
	.cfi_def_cfa_offset 16
	.cfi_offset 3, -16
	movq	_ZN6fastio8writeptrE(%rip), %rdx
	leaq	_ZN6fastio4obufE(%rip), %rbx
	movl	$1, %edi
	movq	%rbx, %rsi
	subq	%rbx, %rdx
	call	write@PLT
	movq	%rbx, _ZN6fastio8writeptrE(%rip)
	popq	%rbx
	.cfi_def_cfa_offset 8
	ret
	.cfi_endproc
.LFE6957:
	.size	_ZN6fastio7ioflushEv, .-_ZN6fastio7ioflushEv
	.section	.rodata._ZN6fastio7IOPreInC2Ev.str1.1,"aMS",@progbits,1
.LC0:
	.string	"void fastio::ioload()"
	.section	.rodata._ZN6fastio7IOPreInC2Ev.str1.8,"aMS",@progbits,1
	.align 8
.LC1:
	.string	"/mnt/c/Users/jayja/Documents/dev/comp/lib/io/fastin.hpp"
	.section	.rodata._ZN6fastio7IOPreInC2Ev.str1.1
.LC2:
	.string	"readptr <= rendptr"
	.section	.text._ZN6fastio7IOPreInC2Ev,"axG",@progbits,_ZN6fastio7IOPreInC5Ev,comdat
	.align 2
	.p2align 4
	.weak	_ZN6fastio7IOPreInC2Ev
	.type	_ZN6fastio7IOPreInC2Ev, @function
_ZN6fastio7IOPreInC2Ev:
.LFB6944:
	.cfi_startproc
	endbr64
	pushq	%r12
	.cfi_def_cfa_offset 16
	.cfi_offset 12, -16
	pushq	%rbx
	.cfi_def_cfa_offset 24
	.cfi_offset 3, -24
	subq	$8, %rsp
	.cfi_def_cfa_offset 32
	movq	_ZN6fastio7readptrE(%rip), %rsi
	movq	_ZN6fastio7rendptrE(%rip), %rdx
	cmpq	%rdx, %rsi
	ja	.L10
	movq	%rdx, %r8
	movl	$2097152, %eax
	leaq	2097152+_ZN6fastio4ibufE(%rip), %rdi
	subq	%rsi, %r8
	subl	%r8d, %eax
	movslq	%r8d, %rbx
	movslq	%eax, %r12
	cmpq	%rdi, %rdx
	jb	.L11
	movl	$4194305, %ecx
	movq	%r8, %rdx
	leaq	_ZN6fastio4ibufE(%rip), %rdi
.L9:
	call	__memcpy_chk@PLT
	movq	%r12, %rdx
	xorl	%edi, %edi
	leaq	(%rbx,%rax), %rsi
	movq	%rax, _ZN6fastio7readptrE(%rip)
	movq	%rsi, _ZN6fastio7rendptrE(%rip)
	call	read@PLT
	addq	_ZN6fastio7rendptrE(%rip), %rax
	movq	%rax, _ZN6fastio7rendptrE(%rip)
	movb	$0, (%rax)
	addq	$8, %rsp
	.cfi_remember_state
	.cfi_def_cfa_offset 24
	popq	%rbx
	.cfi_def_cfa_offset 16
	popq	%r12
	.cfi_def_cfa_offset 8
	ret
	.p2align 4,,10
	.p2align 3
.L11:
	.cfi_restore_state
	movl	$2097153, %ecx
	movq	%r8, %rdx
	jmp	.L9
.L10:
	leaq	.LC0(%rip), %rcx
	movl	$26, %edx
	leaq	.LC1(%rip), %rsi
	leaq	.LC2(%rip), %rdi
	call	__assert_fail@PLT
	.cfi_endproc
.LFE6944:
	.size	_ZN6fastio7IOPreInC2Ev, .-_ZN6fastio7IOPreInC2Ev
	.weak	_ZN6fastio7IOPreInC1Ev
	.set	_ZN6fastio7IOPreInC1Ev,_ZN6fastio7IOPreInC2Ev
	.section	.text._ZN6fastio6IOPostC2Ev,"axG",@progbits,_ZN6fastio6IOPostC5Ev,comdat
	.align 2
	.p2align 4
	.weak	_ZN6fastio6IOPostC2Ev
	.type	_ZN6fastio6IOPostC2Ev, @function
_ZN6fastio6IOPostC2Ev:
.LFB6966:
	.cfi_startproc
	endbr64
	leaq	_ZN6fastio7ioflushEv(%rip), %rdi
	jmp	atexit@PLT
	.cfi_endproc
.LFE6966:
	.size	_ZN6fastio6IOPostC2Ev, .-_ZN6fastio6IOPostC2Ev
	.weak	_ZN6fastio6IOPostC1Ev
	.set	_ZN6fastio6IOPostC1Ev,_ZN6fastio6IOPostC2Ev
	.section	.rodata._ZNSt6vectorIjSaIjEE17_M_realloc_insertIJRKjEEEvN9__gnu_cxx17__normal_iteratorIPjS1_EEDpOT_.str1.1,"aMS",@progbits,1
.LC3:
	.string	"vector::_M_realloc_insert"
	.section	.text._ZNSt6vectorIjSaIjEE17_M_realloc_insertIJRKjEEEvN9__gnu_cxx17__normal_iteratorIPjS1_EEDpOT_,"axG",@progbits,_ZNSt6vectorIjSaIjEE17_M_realloc_insertIJRKjEEEvN9__gnu_cxx17__normal_iteratorIPjS1_EEDpOT_,comdat
	.align 2
	.p2align 4
	.weak	_ZNSt6vectorIjSaIjEE17_M_realloc_insertIJRKjEEEvN9__gnu_cxx17__normal_iteratorIPjS1_EEDpOT_
	.type	_ZNSt6vectorIjSaIjEE17_M_realloc_insertIJRKjEEEvN9__gnu_cxx17__normal_iteratorIPjS1_EEDpOT_, @function
_ZNSt6vectorIjSaIjEE17_M_realloc_insertIJRKjEEEvN9__gnu_cxx17__normal_iteratorIPjS1_EEDpOT_:
.LFB7759:
	.cfi_startproc
	endbr64
	pushq	%r15
	.cfi_def_cfa_offset 16
	.cfi_offset 15, -16
	movq	%rdx, %r15
	movabsq	$2305843009213693951, %rdx
	pushq	%r14
	.cfi_def_cfa_offset 24
	.cfi_offset 14, -24
	pushq	%r13
	.cfi_def_cfa_offset 32
	.cfi_offset 13, -32
	pushq	%r12
	.cfi_def_cfa_offset 40
	.cfi_offset 12, -40
	pushq	%rbp
	.cfi_def_cfa_offset 48
	.cfi_offset 6, -48
	pushq	%rbx
	.cfi_def_cfa_offset 56
	.cfi_offset 3, -56
	subq	$24, %rsp
	.cfi_def_cfa_offset 80
	movq	8(%rdi), %r12
	movq	(%rdi), %r14
	movq	%r12, %rax
	subq	%r14, %rax
	sarq	$2, %rax
	cmpq	%rdx, %rax
	je	.L34
	testq	%rax, %rax
	movl	$1, %edx
	movq	%rdi, %rbp
	movq	%rsi, %r13
	cmovne	%rax, %rdx
	xorl	%ecx, %ecx
	addq	%rdx, %rax
	movq	%rsi, %rdx
	setc	%cl
	subq	%r14, %rdx
	testq	%rcx, %rcx
	jne	.L26
	testq	%rax, %rax
	jne	.L18
	xorl	%ebx, %ebx
	xorl	%edi, %edi
.L24:
	movl	(%r15), %eax
	subq	%r13, %r12
	leaq	4(%rdi,%rdx), %r15
	vmovq	%rdi, %xmm1
	movl	%eax, (%rdi,%rdx)
	leaq	(%r15,%r12), %rax
	vpinsrq	$1, %rax, %xmm1, %xmm0
	vmovdqa	%xmm0, (%rsp)
	testq	%rdx, %rdx
	jg	.L35
	testq	%r12, %r12
	jg	.L22
	testq	%r14, %r14
	jne	.L33
.L23:
	vmovdqa	(%rsp), %xmm2
	movq	%rbx, 16(%rbp)
	vmovdqu	%xmm2, 0(%rbp)
	addq	$24, %rsp
	.cfi_remember_state
	.cfi_def_cfa_offset 56
	popq	%rbx
	.cfi_def_cfa_offset 48
	popq	%rbp
	.cfi_def_cfa_offset 40
	popq	%r12
	.cfi_def_cfa_offset 32
	popq	%r13
	.cfi_def_cfa_offset 24
	popq	%r14
	.cfi_def_cfa_offset 16
	popq	%r15
	.cfi_def_cfa_offset 8
	ret
	.p2align 4,,10
	.p2align 3
.L35:
	.cfi_restore_state
	movq	%r14, %rsi
	call	memmove@PLT
	testq	%r12, %r12
	jg	.L22
.L33:
	movq	16(%rbp), %rsi
	movq	%r14, %rdi
	subq	%r14, %rsi
	call	_ZdlPvm@PLT
	jmp	.L23
	.p2align 4,,10
	.p2align 3
.L22:
	movq	%r12, %rdx
	movq	%r13, %rsi
	movq	%r15, %rdi
	call	memcpy@PLT
	testq	%r14, %r14
	je	.L23
	jmp	.L33
	.p2align 4,,10
	.p2align 3
.L26:
	movabsq	$9223372036854775804, %rbx
.L17:
	movq	%rbx, %rdi
	movq	%rdx, (%rsp)
	call	_Znwm@PLT
	movq	(%rsp), %rdx
	movq	%rax, %rdi
	addq	%rax, %rbx
	jmp	.L24
	.p2align 4,,10
	.p2align 3
.L18:
	movabsq	$2305843009213693951, %rcx
	cmpq	%rcx, %rax
	cmova	%rcx, %rax
	leaq	0(,%rax,4), %rbx
	jmp	.L17
.L34:
	leaq	.LC3(%rip), %rdi
	call	_ZSt20__throw_length_errorPKc@PLT
	.cfi_endproc
.LFE7759:
	.size	_ZNSt6vectorIjSaIjEE17_M_realloc_insertIJRKjEEEvN9__gnu_cxx17__normal_iteratorIPjS1_EEDpOT_, .-_ZNSt6vectorIjSaIjEE17_M_realloc_insertIJRKjEEEvN9__gnu_cxx17__normal_iteratorIPjS1_EEDpOT_
	.section	.text.unlikely,"ax",@progbits
	.globl	_ZN14_factor_detail13factor_helperERSt6vectorIjSaIjEERjj
	.type	_ZN14_factor_detail13factor_helperERSt6vectorIjSaIjEERjj, @function
_ZN14_factor_detail13factor_helperERSt6vectorIjSaIjEERjj:
.LFB7392:
	.cfi_startproc
	endbr64
	pushq	%r12
	.cfi_def_cfa_offset 16
	.cfi_offset 12, -16
	pushq	%rbp
	.cfi_def_cfa_offset 24
	.cfi_offset 6, -24
	movq	%rsi, %rbp
	pushq	%rbx
	.cfi_def_cfa_offset 32
	.cfi_offset 3, -32
	movq	%rdi, %rbx
	subq	$16, %rsp
	.cfi_def_cfa_offset 48
	movl	%edx, 12(%rsp)
	leaq	12(%rsp), %r12
.L39:
	movq	8(%rbx), %rsi
	cmpq	16(%rbx), %rsi
	je	.L37
	movl	12(%rsp), %eax
	addq	$4, %rsi
	movl	%eax, -4(%rsi)
	movq	%rsi, 8(%rbx)
	jmp	.L38
.L37:
	movq	%r12, %rdx
	movq	%rbx, %rdi
	call	_ZNSt6vectorIjSaIjEE17_M_realloc_insertIJRKjEEEvN9__gnu_cxx17__normal_iteratorIPjS1_EEDpOT_
.L38:
	movl	12(%rsp), %ecx
	movl	0(%rbp), %eax
	xorl	%edx, %edx
	divl	%ecx
	xorl	%edx, %edx
	movl	%eax, 0(%rbp)
	divl	%ecx
	testl	%edx, %edx
	je	.L39
	addq	$16, %rsp
	.cfi_def_cfa_offset 32
	popq	%rbx
	.cfi_def_cfa_offset 24
	popq	%rbp
	.cfi_def_cfa_offset 16
	popq	%r12
	.cfi_def_cfa_offset 8
	ret
	.cfi_endproc
.LFE7392:
	.size	_ZN14_factor_detail13factor_helperERSt6vectorIjSaIjEERjj, .-_ZN14_factor_detail13factor_helperERSt6vectorIjSaIjEERjj
	.section	.rodata.str1.8,"aMS",@progbits,1
	.align 8
.LC4:
	.string	"std::vector<int> factor(uint32_t)"
	.align 8
.LC5:
	.string	"/mnt/c/Users/jayja/Documents/dev/comp/lib/math/factor.hpp"
	.section	.rodata.str1.1,"aMS",@progbits,1
.LC6:
	.string	"x<=1e9"
	.section	.rodata.str1.8
	.align 8
.LC7:
	.string	"cannot create std::vector larger than max_size()"
	.section	.text.unlikely
.LCOLDB8:
	.text
.LHOTB8:
	.p2align 4
	.globl	_Z6factorj
	.type	_Z6factorj, @function
_Z6factorj:
.LFB7401:
	.cfi_startproc
	.cfi_personality 0x9b,DW.ref.__gxx_personality_v0
	.cfi_lsda 0x1b,.LLSDA7401
	endbr64
	pushq	%rbp
	.cfi_def_cfa_offset 16
	.cfi_offset 6, -16
	movq	%rsp, %rbp
	.cfi_def_cfa_register 6
	pushq	%r15
	pushq	%r14
	pushq	%r13
	pushq	%r12
	pushq	%rbx
	andq	$-32, %rsp
	subq	$64, %rsp
	.cfi_offset 15, -24
	.cfi_offset 14, -32
	.cfi_offset 13, -40
	.cfi_offset 12, -48
	.cfi_offset 3, -56
	movl	%esi, 28(%rsp)
	movq	%fs:40, %rdx
	movq	%rdx, 56(%rsp)
	xorl	%edx, %edx
	cmpl	$1000000000, %esi
	ja	.L6935
	vpxor	%xmm0, %xmm0, %xmm0
	movq	%rdi, %r13
	movl	%esi, %eax
	movq	$0, 48(%rsp)
	vmovdqa	%xmm0, 32(%rsp)
	cmpl	$3, %esi
	jbe	.L45
	testb	$1, %al
	je	.L3531
.L46:
	imull	$-1431655765, %eax, %edx
	cmpl	$1431655765, %edx
	jbe	.L3532
.L47:
	imull	$-858993459, %eax, %edx
	cmpl	$858993459, %edx
	jbe	.L3533
.L48:
	imull	$-1227133513, %eax, %edx
	cmpl	$613566756, %edx
	jbe	.L3534
.L49:
	imull	$-1171354717, %eax, %edx
	cmpl	$390451572, %edx
	jbe	.L3535
.L50:
	imull	$-991146299, %eax, %edx
	cmpl	$330382099, %edx
	jbe	.L3536
.L51:
	imull	$-252645135, %eax, %edx
	cmpl	$252645135, %edx
	jbe	.L3537
.L52:
	imull	$678152731, %eax, %edx
	cmpl	$226050910, %edx
	jbe	.L3538
.L53:
	imull	$-373475417, %eax, %edx
	cmpl	$186737708, %edx
	jbe	.L3539
.L54:
	imull	$1332920885, %eax, %edx
	cmpl	$148102320, %edx
	jbe	.L3540
.L55:
	imull	$-1108378657, %eax, %edx
	cmpl	$138547332, %edx
	jbe	.L3541
.L56:
	imull	$-1857283155, %eax, %edx
	cmpl	$116080197, %edx
	jbe	.L3542
.L57:
	imull	$-1047552999, %eax, %edx
	cmpl	$104755299, %edx
	jbe	.L3543
.L58:
	imull	$799063683, %eax, %edx
	cmpl	$99882960, %edx
	jbe	.L3544
.L59:
	imull	$1736263375, %eax, %edx
	cmpl	$91382282, %edx
	jbe	.L3545
.L60:
	imull	$-1944890851, %eax, %edx
	cmpl	$81037118, %edx
	jbe	.L3546
.L61:
	imull	$-1601513229, %eax, %edx
	cmpl	$72796055, %edx
	jbe	.L3547
.L62:
	imull	$-1056139499, %eax, %edx
	cmpl	$70409299, %edx
	jbe	.L3548
.L63:
	imull	$128207979, %eax, %edx
	cmpl	$64103989, %edx
	jbe	.L3549
.L64:
	imull	$-483939977, %eax, %edx
	cmpl	$60492497, %edx
	jbe	.L3550
.L65:
	imull	$-941362695, %eax, %edx
	cmpl	$58835168, %edx
	jbe	.L3551
.L66:
	imull	$1631000239, %eax, %edx
	cmpl	$54366674, %edx
	jbe	.L3552
.L67:
	imull	$724452315, %eax, %edx
	cmpl	$51746593, %edx
	jbe	.L3553
.L68:
	imull	$-96516119, %eax, %edx
	cmpl	$48258059, %edx
	jbe	.L3554
.L69:
	imull	$1594008481, %eax, %edx
	cmpl	$44278013, %edx
	jbe	.L3555
.L70:
	imull	$2083697005, %eax, %edx
	cmpl	$42524428, %edx
	jbe	.L3556
.L71:
	imull	$-750576809, %eax, %edx
	cmpl	$41698711, %edx
	jbe	.L3557
.L72:
	imull	$-1926714301, %eax, %edx
	cmpl	$40139881, %edx
	jbe	.L3558
.L73:
	imull	$-630453915, %eax, %edx
	cmpl	$39403369, %edx
	jbe	.L3559
.L74:
	imull	$266059921, %eax, %edx
	cmpl	$38008560, %edx
	jbe	.L3560
.L75:
	imull	$-270549121, %eax, %edx
	cmpl	$33818640, %edx
	jbe	.L3561
.L76:
	imull	$-918008277, %eax, %edx
	cmpl	$32786009, %edx
	jbe	.L3562
.L77:
	imull	$125400505, %eax, %edx
	cmpl	$31350126, %edx
	jbe	.L3563
.L78:
	imull	$1884841763, %eax, %edx
	cmpl	$30899045, %edx
	jbe	.L3564
.L79:
	imull	$-1931294019, %eax, %edx
	cmpl	$28825283, %edx
	jbe	.L3565
.L80:
	imull	$-1080852697, %eax, %edx
	cmpl	$28443492, %edx
	jbe	.L3566
.L81:
	imull	$738624949, %eax, %edx
	cmpl	$27356479, %edx
	jbe	.L3567
.L82:
	imull	$1159377675, %eax, %edx
	cmpl	$26349492, %edx
	jbe	.L3568
.L83:
	imull	$-617240809, %eax, %edx
	cmpl	$25718367, %edx
	jbe	.L3569
.L84:
	imull	$223437605, %eax, %edx
	cmpl	$24826400, %edx
	jbe	.L3570
.L85:
	imull	$-647844229, %eax, %edx
	cmpl	$23994230, %edx
	jbe	.L3571
.L86:
	imull	$284749213, %eax, %edx
	cmpl	$23729101, %edx
	jbe	.L3572
.L87:
	imull	$-292327617, %eax, %edx
	cmpl	$22486739, %edx
	jbe	.L3573
.L88:
	imull	$-1869312191, %eax, %edx
	cmpl	$22253716, %edx
	jbe	.L3574
.L89:
	imull	$1024687629, %eax, %edx
	cmpl	$21801864, %edx
	jbe	.L3575
.L90:
	imull	$-280575753, %eax, %edx
	cmpl	$21582750, %edx
	jbe	.L3576
.L91:
	imull	$1852331867, %eax, %edx
	cmpl	$20355295, %edx
	jbe	.L3577
.L92:
	imull	$-616318177, %eax, %edx
	cmpl	$19259943, %edx
	jbe	.L3578
.L93:
	imull	$-1683929909, %eax, %edx
	cmpl	$18920560, %edx
	jbe	.L3579
.L94:
	imull	$1200340205, %eax, %edx
	cmpl	$18755315, %edx
	jbe	.L3580
.L95:
	imull	$534566745, %eax, %edx
	cmpl	$18433336, %edx
	jbe	.L3581
.L96:
	imull	$1132146191, %eax, %edx
	cmpl	$17970574, %edx
	jbe	.L3582
.L97:
	imull	$285143057, %eax, %edx
	cmpl	$17821441, %edx
	jbe	.L3583
.L98:
	imull	$-1711142349, %eax, %edx
	cmpl	$17111423, %edx
	jbe	.L3584
.L99:
	imull	$-16711935, %eax, %edx
	cmpl	$16711935, %edx
	jbe	.L3585
.L100:
	imull	$1894358199, %eax, %edx
	cmpl	$16330674, %edx
	jbe	.L3586
.L101:
	imull	$1644541381, %eax, %edx
	cmpl	$15966421, %edx
	jbe	.L3587
.L102:
	imull	$-1569010193, %eax, %edx
	cmpl	$15848587, %edx
	jbe	.L3588
.L103:
	imull	$635717181, %eax, %edx
	cmpl	$15505297, %edx
	jbe	.L3589
.L104:
	imull	$122276649, %eax, %edx
	cmpl	$15284581, %edx
	jbe	.L3590
.L105:
	imull	$-910593773, %eax, %edx
	cmpl	$15176562, %edx
	jbe	.L3591
.L106:
	imull	$-2066861395, %eax, %edx
	cmpl	$14658591, %edx
	jbe	.L3592
.L107:
	imull	$-951328261, %eax, %edx
	cmpl	$13990121, %edx
	jbe	.L3593
.L108:
	imull	$-1491499897, %eax, %edx
	cmpl	$13810184, %edx
	jbe	.L3594
.L109:
	imull	$960535817, %eax, %edx
	cmpl	$13721940, %edx
	jbe	.L3595
.L110:
	imull	$1869733397, %eax, %edx
	cmpl	$13548792, %edx
	jbe	.L3596
.L111:
	imull	$-1076985757, %eax, %edx
	cmpl	$12975732, %edx
	jbe	.L3597
.L112:
	imull	$-165681231, %eax, %edx
	cmpl	$12744710, %edx
	jbe	.L3598
.L113:
	imull	$1893746387, %eax, %edx
	cmpl	$12377427, %edx
	jbe	.L3599
.L114:
	imull	$-246129931, %eax, %edx
	cmpl	$12306496, %edx
	jbe	.L3600
.L115:
	imull	$-1703386463, %eax, %edx
	cmpl	$12167046, %edx
	jbe	.L3601
.L116:
	imull	$705858135, %eax, %edx
	cmpl	$11963697, %edx
	jbe	.L3602
.L117:
	imull	$-1217102449, %eax, %edx
	cmpl	$11702908, %edx
	jbe	.L3603
.L118:
	imull	$-1151465763, %eax, %edx
	cmpl	$11514657, %edx
	jbe	.L3604
.L119:
	imull	$317306291, %eax, %edx
	cmpl	$11332367, %edx
	jbe	.L3605
.L120:
	imull	$-325206401, %eax, %edx
	cmpl	$11214013, %edx
	jbe	.L3606
.L121:
	imull	$-331231411, %eax, %edx
	cmpl	$11041047, %edx
	jbe	.L3607
.L122:
	imull	$-1363138235, %eax, %edx
	cmpl	$10818557, %edx
	jbe	.L3608
.L123:
	imull	$-2088575119, %eax, %edx
	cmpl	$10710641, %edx
	jbe	.L3609
.L124:
	imull	$-2068725079, %eax, %edx
	cmpl	$10501142, %edx
	jbe	.L3610
.L125:
	imull	$1978350091, %eax, %edx
	cmpl	$10250518, %edx
	jbe	.L3611
.L126:
	imull	$-91816403, %eax, %edx
	cmpl	$10201822, %edx
	jbe	.L3612
.L127:
	imull	$1066267983, %eax, %edx
	cmpl	$9965121, %edx
	jbe	.L3613
.L128:
	imull	$158705489, %eax, %edx
	cmpl	$9919093, %edx
	jbe	.L3614
.L129:
	imull	$-1007703033, %eax, %edx
	cmpl	$9783524, %edx
	jbe	.L3615
.L130:
	imull	$-1473668237, %eax, %edx
	cmpl	$9695185, %edx
	jbe	.L3616
.L131:
	imull	$-1683550655, %eax, %edx
	cmpl	$9565628, %edx
	jbe	.L3617
.L132:
	imull	$601483385, %eax, %edx
	cmpl	$9398177, %edx
	jbe	.L3618
.L133:
	imull	$-996879611, %eax, %edx
	cmpl	$9316631, %edx
	jbe	.L3619
.L134:
	imull	$-1419287249, %eax, %edx
	cmpl	$9276387, %edx
	jbe	.L3620
.L135:
	imull	$-82772389, %eax, %edx
	cmpl	$9196932, %edx
	jbe	.L3621
.L136:
	imull	$-1084949985, %eax, %edx
	cmpl	$8966528, %edx
	jbe	.L3622
.L137:
	imull	$-1181777449, %eax, %edx
	cmpl	$8819234, %edx
	jbe	.L3623
.L138:
	imull	$-384885053, %eax, %edx
	cmpl	$8747387, %edx
	jbe	.L3624
.L139:
	imull	$-1093107909, %eax, %edx
	cmpl	$8607148, %edx
	jbe	.L3625
.L140:
	imull	$384241607, %eax, %edx
	cmpl	$8538702, %edx
	jbe	.L3626
.L141:
	imull	$-1645419691, %eax, %edx
	cmpl	$8438049, %edx
	jbe	.L3627
.L142:
	imull	$1945513017, %eax, %edx
	cmpl	$8243699, %edx
	jbe	.L3628
.L143:
	imull	$-1387857501, %eax, %edx
	cmpl	$8212174, %edx
	jbe	.L3629
.L144:
	imull	$619237429, %eax, %edx
	cmpl	$7938941, %edx
	jbe	.L3630
.L145:
	imull	$588889483, %eax, %edx
	cmpl	$7851859, %edx
	jbe	.L3631
.L146:
	imull	$-940728923, %eax, %edx
	cmpl	$7710892, %edx
	jbe	.L3632
.L147:
	imull	$-22886149, %eax, %edx
	cmpl	$7628716, %edx
	jbe	.L3633
.L148:
	imull	$-837858295, %eax, %edx
	cmpl	$7548272, %edx
	jbe	.L3634
.L149:
	imull	$1414104819, %eax, %edx
	cmpl	$7521834, %edx
	jbe	.L3635
.L150:
	imull	$1436618177, %eax, %edx
	cmpl	$7443617, %edx
	jbe	.L3636
.L151:
	imull	$-2048706717, %eax, %edx
	cmpl	$7316809, %edx
	jbe	.L3637
.L152:
	imull	$-666335567, %eax, %edx
	cmpl	$7242777, %edx
	jbe	.L3638
.L153:
	imull	$824576359, %eax, %edx
	cmpl	$7170229, %edx
	jbe	.L3639
.L154:
	imull	$-771807767, %eax, %edx
	cmpl	$7146368, %edx
	jbe	.L3640
.L155:
	imull	$1535433119, %eax, %edx
	cmpl	$7075728, %edx
	jbe	.L3641
.L156:
	imull	$322297709, %eax, %edx
	cmpl	$7006471, %edx
	jbe	.L3642
.L157:
	imull	$1976937945, %eax, %edx
	cmpl	$6961049, %edx
	jbe	.L3643
.L158:
	imull	$1013029443, %eax, %edx
	cmpl	$6938557, %edx
	jbe	.L3644
.L159:
	imull	$74872647, %eax, %edx
	cmpl	$6806604, %edx
	jbe	.L3645
.L160:
	imull	$6700417, %eax, %edx
	cmpl	$6700416, %edx
	jbe	.L3646
.L161:
	imull	$1730010155, %eax, %edx
	cmpl	$6679575, %edx
	jbe	.L3647
.L162:
	imull	$-1042209993, %eax, %edx
	cmpl	$6638280, %edx
	jbe	.L3648
.L163:
	imull	$-1664053179, %eax, %edx
	cmpl	$6577285, %edx
	jbe	.L3649
.L164:
	imull	$-1857459301, %eax, %edx
	cmpl	$6517401, %edx
	jbe	.L3650
.L165:
	imull	$-942163779, %eax, %edx
	cmpl	$6497681, %edx
	jbe	.L3651
.L166:
	imull	$-1627365023, %eax, %edx
	cmpl	$6381823, %edx
	jbe	.L3652
.L167:
	imull	$1579685165, %eax, %edx
	cmpl	$6344117, %edx
	jbe	.L3653
.L168:
	imull	$12576771, %eax, %edx
	cmpl	$6288385, %edx
	jbe	.L3654
.L169:
	imull	$-1634698117, %eax, %edx
	cmpl	$6215582, %edx
	jbe	.L3655
.L170:
	imull	$1985120405, %eax, %edx
	cmpl	$6126914, %edx
	jbe	.L3656
.L171:
	imull	$30288909, %eax, %edx
	cmpl	$6057781, %edx
	jbe	.L3657
.L172:
	imull	$-1093155793, %eax, %edx
	cmpl	$5973528, %edx
	jbe	.L3658
.L173:
	imull	$-726658841, %eax, %edx
	cmpl	$5907795, %edx
	jbe	.L3659
.L174:
	imull	$515630453, %eax, %edx
	cmpl	$5859436, %edx
	jbe	.L3660
.L175:
	imull	$-1266986293, %eax, %edx
	cmpl	$5811863, %edx
	jbe	.L3661
.L176:
	imull	$1693708503, %eax, %edx
	cmpl	$5780575, %edx
	jbe	.L3662
.L177:
	imull	$829254671, %eax, %edx
	cmpl	$5718997, %edx
	jbe	.L3663
.L178:
	imull	$-1849616035, %eax, %edx
	cmpl	$5673668, %edx
	jbe	.L3664
.L179:
	imull	$-1568989367, %eax, %edx
	cmpl	$5643846, %edx
	jbe	.L3665
.L180:
	imull	$-452395775, %eax, %edx
	cmpl	$5585133, %edx
	jbe	.L3666
.L181:
	imull	$322261453, %eax, %edx
	cmpl	$5556231, %edx
	jbe	.L3667
.L182:
	imull	$764034843, %eax, %edx
	cmpl	$5457391, %edx
	jbe	.L3668
.L183:
	imull	$-1018505419, %eax, %edx
	cmpl	$5388917, %edx
	jbe	.L3669
.L184:
	imull	$175196441, %eax, %edx
	cmpl	$5308983, %edx
	jbe	.L3670
.L185:
	imull	$619619203, %eax, %edx
	cmpl	$5295890, %edx
	jbe	.L3671
.L186:
	imull	$1119516445, %eax, %edx
	cmpl	$5231385, %edx
	jbe	.L3672
.L187:
	imull	$125248135, %eax, %edx
	cmpl	$5218672, %edx
	jbe	.L3673
.L188:
	imull	$1583996403, %eax, %edx
	cmpl	$5193430, %edx
	jbe	.L3674
.L189:
	imull	$994733077, %eax, %edx
	cmpl	$5180901, %edx
	jbe	.L3675
.L190:
	imull	$-972638601, %eax, %edx
	cmpl	$5119150, %edx
	jbe	.L3676
.L191:
	imull	$1188291069, %eax, %edx
	cmpl	$5035131, %edx
	jbe	.L3677
.L192:
	imull	$1212814569, %eax, %edx
	cmpl	$5011630, %edx
	jbe	.L3678
.L193:
	imull	$484996307, %eax, %edx
	cmpl	$4999961, %edx
	jbe	.L3679
.L194:
	imull	$74651807, %eax, %edx
	cmpl	$4976787, %edx
	jbe	.L3680
.L195:
	imull	$925597285, %eax, %edx
	cmpl	$4897340, %edx
	jbe	.L3681
.L196:
	imull	$1335778705, %eax, %edx
	cmpl	$4875104, %edx
	jbe	.L3682
.L197:
	imull	$1147918779, %eax, %edx
	cmpl	$4864062, %edx
	jbe	.L3683
.L198:
	imull	$-411580857, %eax, %edx
	cmpl	$4842127, %edx
	jbe	.L3684
.L199:
	imull	$-165737437, %eax, %edx
	cmpl	$4735355, %edx
	jbe	.L3685
.L200:
	imull	$-1513374865, %eax, %edx
	cmpl	$4714563, %edx
	jbe	.L3686
.L201:
	imull	$1775938599, %eax, %edx
	cmpl	$4673522, %edx
	jbe	.L3687
.L202:
	imull	$1668980833, %eax, %edx
	cmpl	$4623215, %edx
	jbe	.L3688
.L203:
	imull	$531714201, %eax, %edx
	cmpl	$4583743, %edx
	jbe	.L3689
.L204:
	imull	$1898731557, %eax, %edx
	cmpl	$4564258, %edx
	jbe	.L3690
.L205:
	imull	$-13606021, %eax, %edx
	cmpl	$4535340, %edx
	jbe	.L3691
.L206:
	imull	$18027145, %eax, %edx
	cmpl	$4506786, %edx
	jbe	.L3692
.L207:
	imull	$257609207, %eax, %edx
	cmpl	$4441538, %edx
	jbe	.L3693
.L208:
	imull	$1296009699, %eax, %edx
	cmpl	$4423241, %edx
	jbe	.L3694
.L209:
	imull	$-769313487, %eax, %edx
	cmpl	$4396077, %edx
	jbe	.L3695
.L210:
	imull	$2079760359, %eax, %edx
	cmpl	$4369244, %edx
	jbe	.L3696
.L211:
	imull	$-810452961, %eax, %edx
	cmpl	$4333973, %edx
	jbe	.L3697
.L212:
	imull	$831422957, %eax, %edx
	cmpl	$4307890, %edx
	jbe	.L3698
.L213:
	imull	$-1626043119, %eax, %edx
	cmpl	$4256657, %edx
	jbe	.L3699
.L214:
	imull	$746213469, %eax, %edx
	cmpl	$4239849, %edx
	jbe	.L3700
.L215:
	imull	$678596403, %eax, %edx
	cmpl	$4214884, %edx
	jbe	.L3701
.L216:
	imull	$-437489323, %eax, %edx
	cmpl	$4206628, %edx
	jbe	.L3702
.L217:
	imull	$-1612174921, %eax, %edx
	cmpl	$4165826, %edx
	jbe	.L3703
.L218:
	imull	$1783679545, %eax, %edx
	cmpl	$4157761, %edx
	jbe	.L3704
.L219:
	imull	$-1227724049, %eax, %edx
	cmpl	$4133751, %edx
	jbe	.L3705
.L220:
	imull	$-1473963991, %eax, %edx
	cmpl	$4094344, %edx
	jbe	.L3706
.L221:
	imull	$461780499, %eax, %edx
	cmpl	$4086553, %edx
	jbe	.L3707
.L222:
	imull	$550533037, %eax, %edx
	cmpl	$4048037, %edx
	jbe	.L3708
.L223:
	imull	$775760791, %eax, %edx
	cmpl	$4040420, %edx
	jbe	.L3709
.L224:
	cmpl	$1142760, %eax
	jbe	.L225
	imull	$1036577701, %eax, %edx
	cmpl	$4017743, %edx
	jbe	.L3710
.L226:
	imull	$841608127, %eax, %edx
	cmpl	$3951211, %edx
	jbe	.L3711
.L227:
	imull	$2114021483, %eax, %edx
	cmpl	$3936725, %edx
	jbe	.L3712
.L228:
	imull	$738750093, %eax, %edx
	cmpl	$3929521, %edx
	jbe	.L3713
.L229:
	imull	$-1620890119, %eax, %edx
	cmpl	$3915193, %edx
	jbe	.L3714
.L230:
	imull	$-537357649, %eax, %edx
	cmpl	$3893896, %edx
	jbe	.L3715
.L231:
	imull	$1057282301, %eax, %edx
	cmpl	$3872828, %edx
	jbe	.L3716
.L232:
	imull	$-1661079563, %eax, %edx
	cmpl	$3845091, %edx
	jbe	.L3717
.L233:
	imull	$198876491, %eax, %edx
	cmpl	$3824547, %edx
	jbe	.L3718
.L234:
	imull	$620088281, %eax, %edx
	cmpl	$3804222, %edx
	jbe	.L3719
.L235:
	imull	$-1798587521, %eax, %edx
	cmpl	$3731509, %edx
	jbe	.L3720
.L236:
	imull	$-1259062399, %eax, %edx
	cmpl	$3725036, %edx
	jbe	.L3721
.L237:
	imull	$55395107, %eax, %edx
	cmpl	$3693007, %edx
	jbe	.L3722
.L238:
	imull	$1962260891, %eax, %edx
	cmpl	$3667777, %edx
	jbe	.L3723
.L239:
	imull	$-963731019, %eax, %edx
	cmpl	$3636720, %edx
	jbe	.L3724
.L240:
	imull	$-1765748981, %eax, %edx
	cmpl	$3618338, %edx
	jbe	.L3725
.L241:
	imull	$-482418791, %eax, %edx
	cmpl	$3600140, %edx
	jbe	.L3726
.L242:
	imull	$-1198013359, %eax, %edx
	cmpl	$3576159, %edx
	jbe	.L3727
.L243:
	imull	$-1883695467, %eax, %edx
	cmpl	$3540780, %edx
	jbe	.L3728
.L244:
	imull	$-437613759, %eax, %edx
	cmpl	$3529143, %edx
	jbe	.L3729
.L245:
	imull	$-1812103945, %eax, %edx
	cmpl	$3511829, %edx
	jbe	.L3730
.L246:
	imull	$188712965, %eax, %edx
	cmpl	$3494684, %edx
	jbe	.L3731
.L247:
	imull	$-1458404817, %eax, %edx
	cmpl	$3489006, %edx
	jbe	.L3732
.L248:
	imull	$329847933, %eax, %edx
	cmpl	$3472083, %edx
	jbe	.L3733
.L249:
	imull	$206323489, %eax, %edx
	cmpl	$3438724, %edx
	jbe	.L3734
.L250:
	imull	$2053669827, %eax, %edx
	cmpl	$3411411, %edx
	jbe	.L3735
.L251:
	imull	$716388437, %eax, %edx
	cmpl	$3363325, %edx
	jbe	.L3736
.L252:
	imull	$-2098791681, %eax, %edx
	cmpl	$3358066, %edx
	jbe	.L3737
.L253:
	imull	$398364075, %eax, %edx
	cmpl	$3347597, %edx
	jbe	.L3738
.L254:
	imull	$2092505401, %eax, %edx
	cmpl	$3332014, %edx
	jbe	.L3739
.L255:
	imull	$1117822627, %eax, %edx
	cmpl	$3326853, %edx
	jbe	.L3740
.L256:
	imull	$1837861873, %eax, %edx
	cmpl	$3311462, %edx
	jbe	.L3741
.L257:
	imull	$-1165352387, %eax, %edx
	cmpl	$3301281, %edx
	jbe	.L3742
.L258:
	imull	$-1674476889, %eax, %edx
	cmpl	$3296214, %edx
	jbe	.L3743
.L259:
	imull	$1196150035, %eax, %edx
	cmpl	$3286126, %edx
	jbe	.L3744
.L260:
	imull	$-986637673, %eax, %edx
	cmpl	$3256229, %edx
	jbe	.L3745
.L261:
	imull	$-1072928999, %eax, %edx
	cmpl	$3251299, %edx
	jbe	.L3746
.L262:
	imull	$1259037135, %eax, %edx
	cmpl	$3236599, %edx
	jbe	.L3747
.L263:
	imull	$-1685167183, %eax, %edx
	cmpl	$3155743, %edx
	jbe	.L3748
.L264:
	imull	$69121639, %eax, %edx
	cmpl	$3141892, %edx
	jbe	.L3749
.L265:
	imull	$-1989511435, %eax, %edx
	cmpl	$3128162, %edx
	jbe	.L3750
.L266:
	imull	$1247126637, %eax, %edx
	cmpl	$3110041, %edx
	jbe	.L3751
.L267:
	imull	$1476682823, %eax, %edx
	cmpl	$3070026, %edx
	jbe	.L3752
.L268:
	imull	$1774074497, %eax, %edx
	cmpl	$3048237, %edx
	jbe	.L3753
.L269:
	imull	$-799835793, %eax, %edx
	cmpl	$3018248, %edx
	jbe	.L3754
.L270:
	imull	$-1980440421, %eax, %edx
	cmpl	$3009787, %edx
	jbe	.L3755
.L271:
	imull	$-1217258051, %eax, %edx
	cmpl	$3005575, %edx
	jbe	.L3756
.L272:
	imull	$905150121, %eax, %edx
	cmpl	$2997185, %edx
	jbe	.L3757
.L273:
	imull	$-220866977, %eax, %edx
	cmpl	$2984688, %edx
	jbe	.L3758
.L274:
	imull	$911233559, %eax, %edx
	cmpl	$2968187, %edx
	jbe	.L3759
.L275:
	imull	$1885523203, %eax, %edx
	cmpl	$2960005, %edx
	jbe	.L3760
.L276:
	imull	$-38427099, %eax, %edx
	cmpl	$2955930, %edx
	jbe	.L3761
.L277:
	imull	$2122461563, %eax, %edx
	cmpl	$2943774, %edx
	jbe	.L3762
.L278:
	imull	$1623386687, %eax, %edx
	cmpl	$2919760, %edx
	jbe	.L3763
.L279:
	imull	$-263904135, %eax, %edx
	cmpl	$2900045, %edx
	jbe	.L3764
.L280:
	imull	$-2102593565, %eax, %edx
	cmpl	$2896134, %edx
	jbe	.L3765
.L281:
	imull	$1943855407, %eax, %edx
	cmpl	$2888343, %edx
	jbe	.L3766
.L282:
	imull	$-2050854095, %eax, %edx
	cmpl	$2884464, %edx
	jbe	.L3767
.L283:
	imull	$-28767363, %eax, %edx
	cmpl	$2876736, %edx
	jbe	.L3768
.L284:
	imull	$-1701941677, %eax, %edx
	cmpl	$2865221, %edx
	jbe	.L3769
.L285:
	imull	$-730513961, %eax, %edx
	cmpl	$2842466, %edx
	jbe	.L3770
.L286:
	imull	$-995484869, %eax, %edx
	cmpl	$2820070, %edx
	jbe	.L3771
.L287:
	imull	$-2129248973, %eax, %edx
	cmpl	$2805334, %edx
	jbe	.L3772
.L288:
	imull	$1497532343, %eax, %edx
	cmpl	$2783517, %edx
	jbe	.L3773
.L289:
	imull	$329955525, %eax, %edx
	cmpl	$2772735, %edx
	jbe	.L3774
.L290:
	imull	$-1916556559, %eax, %edx
	cmpl	$2765593, %edx
	jbe	.L3775
.L291:
	imull	$1449103783, %eax, %edx
	cmpl	$2754950, %edx
	jbe	.L3776
.L292:
	imull	$-1946028577, %eax, %edx
	cmpl	$2740885, %edx
	jbe	.L3777
.L293:
	imull	$-1943807605, %eax, %edx
	cmpl	$2733906, %edx
	jbe	.L3778
.L294:
	imull	$19040387, %eax, %edx
	cmpl	$2720055, %edx
	jbe	.L3779
.L295:
	imull	$-67829553, %eax, %edx
	cmpl	$2713182, %edx
	jbe	.L3780
.L296:
	imull	$-927842027, %eax, %edx
	cmpl	$2689397, %edx
	jbe	.L3781
.L297:
	imull	$-1392309823, %eax, %edx
	cmpl	$2682677, %edx
	jbe	.L3782
.L298:
	imull	$614712183, %eax, %edx
	cmpl	$2672661, %edx
	jbe	.L3783
.L299:
	imull	$-1961964551, %eax, %edx
	cmpl	$2669339, %edx
	jbe	.L3784
.L300:
	imull	$-335502715, %eax, %edx
	cmpl	$2662719, %edx
	jbe	.L3785
.L301:
	imull	$233450971, %eax, %edx
	cmpl	$2652851, %edx
	jbe	.L3786
.L302:
	imull	$-1698380035, %eax, %edx
	cmpl	$2649578, %edx
	jbe	.L3787
.L303:
	imull	$-1113998893, %eax, %edx
	cmpl	$2639807, %edx
	jbe	.L3788
.L304:
	imull	$-902546579, %eax, %edx
	cmpl	$2623681, %edx
	jbe	.L3789
.L305:
	imull	$-482114615, %eax, %edx
	cmpl	$2592014, %edx
	jbe	.L3790
.L306:
	imull	$-583681665, %eax, %edx
	cmpl	$2582662, %edx
	jbe	.L3791
.L307:
	imull	$1888548907, %eax, %edx
	cmpl	$2576465, %edx
	jbe	.L3792
.L308:
	imull	$-579009971, %eax, %edx
	cmpl	$2573377, %edx
	jbe	.L3793
.L309:
	imull	$1953410997, %eax, %edx
	cmpl	$2536897, %edx
	jbe	.L3794
.L310:
	imull	$913661281, %eax, %edx
	cmpl	$2530917, %edx
	jbe	.L3795
.L311:
	imull	$1375198475, %eax, %edx
	cmpl	$2527938, %edx
	jbe	.L3796
.L312:
	imull	$-829338331, %eax, %edx
	cmpl	$2513146, %edx
	jbe	.L3797
.L313:
	imull	$-494133367, %eax, %edx
	cmpl	$2495623, %edx
	jbe	.L3798
.L314:
	imull	$852512371, %eax, %edx
	cmpl	$2492726, %edx
	jbe	.L3799
.L315:
	imull	$-1992587251, %eax, %edx
	cmpl	$2478342, %edx
	jbe	.L3800
.L316:
	imull	$1855149573, %eax, %edx
	cmpl	$2466954, %edx
	jbe	.L3801
.L317:
	imull	$594952539, %eax, %edx
	cmpl	$2458481, %edx
	jbe	.L3802
.L318:
	imull	$-1163781783, %eax, %edx
	cmpl	$2450066, %edx
	jbe	.L3803
.L319:
	imull	$1120744735, %eax, %edx
	cmpl	$2441709, %edx
	jbe	.L3804
.L320:
	imull	$77343249, %eax, %edx
	cmpl	$2416976, %edx
	jbe	.L3805
.L321:
	imull	$1040620231, %eax, %edx
	cmpl	$2408843, %edx
	jbe	.L3806
.L322:
	imull	$-538373069, %eax, %edx
	cmpl	$2403451, %edx
	jbe	.L3807
.L323:
	imull	$936298069, %eax, %edx
	cmpl	$2400764, %edx
	jbe	.L3808
.L324:
	imull	$1912583993, %eax, %edx
	cmpl	$2384768, %edx
	jbe	.L3809
.L325:
	imull	$1653005083, %eax, %edx
	cmpl	$2371599, %edx
	jbe	.L3810
.L326:
	imull	$-32983841, %eax, %edx
	cmpl	$2355988, %edx
	jbe	.L3811
.L327:
	imull	$2000877719, %eax, %edx
	cmpl	$2345694, %edx
	jbe	.L3812
.L328:
	imull	$744119943, %eax, %edx
	cmpl	$2325374, %edx
	jbe	.L3813
.L329:
	imull	$-648514675, %eax, %edx
	cmpl	$2307881, %edx
	jbe	.L3814
.L330:
	imull	$489998947, %eax, %edx
	cmpl	$2300464, %edx
	jbe	.L3815
.L331:
	imull	$-700141649, %eax, %edx
	cmpl	$2295546, %edx
	jbe	.L3816
.L332:
	imull	$-820928079, %eax, %edx
	cmpl	$2293095, %edx
	jbe	.L3817
.L333:
	imull	$844348925, %eax, %edx
	cmpl	$2288208, %edx
	jbe	.L3818
.L334:
	imull	$-2134911897, %eax, %edx
	cmpl	$2285772, %edx
	jbe	.L3819
.L335:
	imull	$-266019679, %eax, %edx
	cmpl	$2273672, %edx
	jbe	.L3820
.L336:
	imull	$-894690715, %eax, %edx
	cmpl	$2259319, %edx
	jbe	.L3821
.L337:
	imull	$-1369344581, %eax, %edx
	cmpl	$2252211, %edx
	jbe	.L3822
.L338:
	imull	$-150424887, %eax, %edx
	cmpl	$2245147, %edx
	jbe	.L3823
.L339:
	imull	$949741603, %eax, %edx
	cmpl	$2224219, %edx
	jbe	.L3824
.L340:
	imull	$1279824709, %eax, %edx
	cmpl	$2221917, %edx
	jbe	.L3825
.L341:
	imull	$1048950453, %eax, %edx
	cmpl	$2203677, %edx
	jbe	.L3826
.L342:
	imull	$358831199, %eax, %edx
	cmpl	$2201418, %edx
	jbe	.L3827
.L343:
	imull	$-433197411, %eax, %edx
	cmpl	$2176871, %edx
	jbe	.L3828
.L344:
	imull	$1718855027, %eax, %edx
	cmpl	$2170271, %edx
	jbe	.L3829
.L345:
	imull	$-445275925, %eax, %edx
	cmpl	$2161533, %edx
	jbe	.L3830
.L346:
	imull	$-530136455, %eax, %edx
	cmpl	$2155026, %edx
	jbe	.L3831
.L347:
	imull	$-1967899387, %eax, %edx
	cmpl	$2150709, %edx
	jbe	.L3832
.L348:
	imull	$382443311, %eax, %edx
	cmpl	$2148557, %edx
	jbe	.L3833
.L349:
	imull	$-373102501, %eax, %edx
	cmpl	$2144267, %edx
	jbe	.L3834
.L350:
	imull	$568106067, %eax, %edx
	cmpl	$2135737, %edx
	jbe	.L3835
.L351:
	imull	$-907117535, %eax, %edx
	cmpl	$2129383, %edx
	jbe	.L3836
.L352:
	imull	$1277683907, %eax, %edx
	cmpl	$2118878, %edx
	jbe	.L3837
.L353:
	imull	$433941989, %eax, %edx
	cmpl	$2116790, %edx
	jbe	.L3838
.L354:
	imull	$-1567168057, %eax, %edx
	cmpl	$2106408, %edx
	jbe	.L3839
.L355:
	imull	$-2027191091, %eax, %edx
	cmpl	$2092044, %edx
	jbe	.L3840
.L356:
	imull	$949348079, %eax, %edx
	cmpl	$2081903, %edx
	jbe	.L3841
.L357:
	imull	$-1735424195, %eax, %edx
	cmpl	$2075866, %edx
	jbe	.L3842
.L358:
	imull	$-1242465311, %eax, %edx
	cmpl	$2063895, %edx
	jbe	.L3843
.L359:
	imull	$-49485941, %eax, %edx
	cmpl	$2061914, %edx
	jbe	.L3844
.L360:
	imull	$107014039, %eax, %edx
	cmpl	$2057962, %edx
	jbe	.L3845
.L361:
	imull	$536613913, %eax, %edx
	cmpl	$2055992, %edx
	jbe	.L3846
.L362:
	imull	$-1037421829, %eax, %edx
	cmpl	$2046196, %edx
	jbe	.L3847
.L363:
	imull	$221767615, %eax, %edx
	cmpl	$2034565, %edx
	jbe	.L3848
.L364:
	imull	$264243137, %eax, %edx
	cmpl	$2032639, %edx
	jbe	.L3849
.L365:
	imull	$201736369, %eax, %edx
	cmpl	$2017363, %edx
	jbe	.L3850
.L366:
	imull	$822311899, %eax, %edx
	cmpl	$2015470, %edx
	jbe	.L3851
.L367:
	imull	$267304937, %eax, %edx
	cmpl	$2009811, %edx
	jbe	.L3852
.L368:
	imull	$1414269941, %eax, %edx
	cmpl	$2006056, %edx
	jbe	.L3853
.L369:
	imull	$1497125791, %eax, %edx
	cmpl	$2004184, %edx
	jbe	.L3854
.L370:
	imull	$-99743783, %eax, %edx
	cmpl	$1994875, %edx
	jbe	.L3855
.L371:
	imull	$-1114982255, %eax, %edx
	cmpl	$1987490, %edx
	jbe	.L3856
.L372:
	imull	$2083423787, %eax, %edx
	cmpl	$1971072, %edx
	jbe	.L3857
.L373:
	imull	$1499241875, %eax, %edx
	cmpl	$1949599, %edx
	jbe	.L3858
.L374:
	imull	$1560744799, %eax, %edx
	cmpl	$1946065, %edx
	jbe	.L3859
.L375:
	imull	$1847631661, %eax, %edx
	cmpl	$1940789, %edx
	jbe	.L3860
.L376:
	imull	$1198955301, %eax, %edx
	cmpl	$1933798, %edx
	jbe	.L3861
.L377:
	imull	$-1430375787, %eax, %edx
	cmpl	$1919967, %edx
	jbe	.L3862
.L378:
	imull	$-792238273, %eax, %edx
	cmpl	$1918252, %edx
	jbe	.L3863
.L379:
	imull	$649127915, %eax, %edx
	cmpl	$1914831, %edx
	jbe	.L3864
.L380:
	imull	$1455824099, %eax, %edx
	cmpl	$1908026, %edx
	jbe	.L3865
.L381:
	imull	$-1591430317, %eax, %edx
	cmpl	$1894559, %edx
	jbe	.L3866
.L382:
	imull	$-1167913099, %eax, %edx
	cmpl	$1892889, %edx
	jbe	.L3867
.L383:
	imull	$-1118618847, %eax, %edx
	cmpl	$1889558, %edx
	jbe	.L3868
.L384:
	imull	$-583708839, %eax, %edx
	cmpl	$1882931, %edx
	jbe	.L3869
.L385:
	imull	$1947477519, %eax, %edx
	cmpl	$1877991, %edx
	jbe	.L3870
.L386:
	imull	$-1901173923, %eax, %edx
	cmpl	$1873077, %edx
	jbe	.L3871
.L387:
	imull	$-76662455, %eax, %edx
	cmpl	$1869815, %edx
	jbe	.L3872
.L388:
	imull	$351558605, %eax, %edx
	cmpl	$1860098, %edx
	jbe	.L3873
.L389:
	imull	$-564980553, %eax, %edx
	cmpl	$1858488, %edx
	jbe	.L3874
.L390:
	imull	$-222756555, %eax, %edx
	cmpl	$1840963, %edx
	jbe	.L3875
.L391:
	imull	$-543527285, %eax, %edx
	cmpl	$1836240, %edx
	jbe	.L3876
.L392:
	imull	$-1043928403, %eax, %edx
	cmpl	$1834672, %edx
	jbe	.L3877
.L393:
	imull	$-2109969021, %eax, %edx
	cmpl	$1829981, %edx
	jbe	.L3878
.L394:
	imull	$266722767, %eax, %edx
	cmpl	$1826868, %edx
	jbe	.L3879
.L395:
	imull	$-996753123, %eax, %edx
	cmpl	$1822217, %edx
	jbe	.L3880
.L396:
	imull	$-124990613, %eax, %edx
	cmpl	$1811458, %edx
	jbe	.L3881
.L397:
	imull	$1165441273, %eax, %edx
	cmpl	$1806885, %edx
	jbe	.L3882
.L398:
	imull	$-1223010427, %eax, %edx
	cmpl	$1803850, %edx
	jbe	.L3883
.L399:
	imull	$-1928499793, %eax, %edx
	cmpl	$1802336, %edx
	jbe	.L3884
.L400:
	imull	$-1227904003, %eax, %edx
	cmpl	$1797809, %edx
	jbe	.L3885
.L401:
	imull	$-437932311, %eax, %edx
	cmpl	$1794804, %edx
	jbe	.L3886
.L402:
	imull	$245273247, %eax, %edx
	cmpl	$1790315, %edx
	jbe	.L3887
.L403:
	imull	$1485691715, %eax, %edx
	cmpl	$1781404, %edx
	jbe	.L404
.L406:
	cmpl	$5841888, %eax
	jbe	.L225
	imull	$-998664303, %eax, %edx
	cmpl	$1776982, %edx
	jbe	.L3888
.L407:
	imull	$994418759, %eax, %edx
	cmpl	$1772582, %edx
	jbe	.L3889
.L408:
	imull	$1150846797, %eax, %edx
	cmpl	$1762399, %edx
	jbe	.L3890
.L409:
	imull	$-1449837383, %eax, %edx
	cmpl	$1759511, %edx
	jbe	.L3891
.L410:
	imull	$-724896401, %eax, %edx
	cmpl	$1755197, %edx
	jbe	.L3892
.L411:
	imull	$1241855123, %eax, %edx
	cmpl	$1746631, %edx
	jbe	.L3893
.L412:
	imull	$1791455755, %eax, %edx
	cmpl	$1740967, %edx
	jbe	.L3894
.L413:
	imull	$-955209063, %eax, %edx
	cmpl	$1736743, %edx
	jbe	.L3895
.L414:
	imull	$-1551875547, %eax, %edx
	cmpl	$1733939, %edx
	jbe	.L3896
.L415:
	imull	$-272832521, %eax, %edx
	cmpl	$1715927, %edx
	jbe	.L3897
.L416:
	imull	$-816060823, %eax, %edx
	cmpl	$1703676, %edx
	jbe	.L3898
.L417:
	imull	$834896843, %eax, %edx
	cmpl	$1696944, %edx
	jbe	.L3899
.L418:
	imull	$495638211, %eax, %edx
	cmpl	$1691597, %edx
	jbe	.L3900
.L419:
	imull	$-238140145, %eax, %edx
	cmpl	$1688937, %edx
	jbe	.L3901
.L420:
	imull	$933468765, %eax, %edx
	cmpl	$1684961, %edx
	jbe	.L3902
.L421:
	imull	$1698793415, %eax, %edx
	cmpl	$1683640, %edx
	jbe	.L3903
.L422:
	imull	$-631563435, %eax, %edx
	cmpl	$1679689, %edx
	jbe	.L3904
.L423:
	imull	$2061717531, %eax, %edx
	cmpl	$1665361, %edx
	jbe	.L3905
.L424:
	imull	$462483935, %eax, %edx
	cmpl	$1657648, %edx
	jbe	.L3906
.L425:
	imull	$-2072118815, %eax, %edx
	cmpl	$1656369, %edx
	jbe	.L3907
.L426:
	imull	$1119424209, %eax, %edx
	cmpl	$1646212, %edx
	jbe	.L3908
.L427:
	imull	$1770832905, %eax, %edx
	cmpl	$1641179, %edx
	jbe	.L3909
.L428:
	imull	$2094226709, %eax, %edx
	cmpl	$1638675, %edx
	jbe	.L3910
.L429:
	imull	$1916667897, %eax, %edx
	cmpl	$1631206, %edx
	jbe	.L3911
.L430:
	imull	$-1414889113, %eax, %edx
	cmpl	$1622579, %edx
	jbe	.L3912
.L431:
	imull	$1588992417, %eax, %edx
	cmpl	$1616472, %edx
	jbe	.L3913
.L432:
	imull	$-2020686005, %eax, %edx
	cmpl	$1615256, %edx
	jbe	.L3914
.L433:
	imull	$72577367, %eax, %edx
	cmpl	$1612830, %edx
	jbe	.L3915
.L434:
	imull	$-2043767665, %eax, %edx
	cmpl	$1607999, %edx
	jbe	.L3916
.L435:
	imull	$-847120931, %eax, %edx
	cmpl	$1604395, %edx
	jbe	.L3917
.L436:
	imull	$-930069325, %eax, %edx
	cmpl	$1600807, %edx
	jbe	.L3918
.L437:
	imull	$1777448319, %eax, %edx
	cmpl	$1598424, %edx
	jbe	.L3919
.L438:
	imull	$-1966197375, %eax, %edx
	cmpl	$1597235, %edx
	jbe	.L3920
.L439:
	imull	$-1784652211, %eax, %edx
	cmpl	$1594863, %edx
	jbe	.L3921
.L440:
	imull	$-1534030557, %eax, %edx
	cmpl	$1591318, %edx
	jbe	.L3922
.L441:
	imull	$1653253019, %eax, %edx
	cmpl	$1586615, %edx
	jbe	.L3923
.L442:
	imull	$2111837479, %eax, %edx
	cmpl	$1584274, %edx
	jbe	.L3924
.L443:
	imull	$1728752041, %eax, %edx
	cmpl	$1583106, %edx
	jbe	.L3925
.L444:
	imull	$990417247, %eax, %edx
	cmpl	$1579612, %edx
	jbe	.L3926
.L445:
	imull	$-620086887, %eax, %edx
	cmpl	$1573824, %edx
	jbe	.L3927
.L446:
	imull	$201302019, %eax, %edx
	cmpl	$1572672, %edx
	jbe	.L3928
.L447:
	imull	$-382332003, %eax, %edx
	cmpl	$1566934, %edx
	jbe	.L3929
.L448:
	imull	$1281147029, %eax, %edx
	cmpl	$1562374, %edx
	jbe	.L3930
.L449:
	imull	$388465985, %eax, %edx
	cmpl	$1560104, %edx
	jbe	.L3931
.L450:
	imull	$-762135505, %eax, %edx
	cmpl	$1552210, %edx
	jbe	.L3932
.L451:
	imull	$595449193, %eax, %edx
	cmpl	$1546621, %edx
	jbe	.L3933
.L452:
	imull	$1455268589, %eax, %edx
	cmpl	$1539966, %edx
	jbe	.L3934
.L453:
	imull	$-401643305, %eax, %edx
	cmpl	$1538863, %edx
	jbe	.L3935
.L454:
	imull	$-663362843, %eax, %edx
	cmpl	$1535562, %edx
	jbe	.L3936
.L455:
	imull	$1364698641, %eax, %edx
	cmpl	$1533369, %edx
	jbe	.L3937
.L456:
	imull	$-373875141, %eax, %edx
	cmpl	$1532275, %edx
	jbe	.L3938
.L457:
	imull	$-1282852949, %eax, %edx
	cmpl	$1523578, %edx
	jbe	.L3939
.L458:
	imull	$-1990572559, %eax, %edx
	cmpl	$1516049, %edx
	jbe	.L3940
.L459:
	imull	$405728317, %eax, %edx
	cmpl	$1513911, %edx
	jbe	.L3941
.L460:
	imull	$389764883, %eax, %edx
	cmpl	$1510716, %edx
	jbe	.L3942
.L461:
	imull	$988249227, %eax, %edx
	cmpl	$1506477, %edx
	jbe	.L3943
.L462:
	imull	$-2104639207, %eax, %edx
	cmpl	$1503313, %edx
	jbe	.L3944
.L463:
	imull	$-1037337435, %eax, %edx
	cmpl	$1501211, %edx
	jbe	.L3945
.L464:
	imull	$514679999, %eax, %edx
	cmpl	$1491826, %edx
	jbe	.L3946
.L465:
	imull	$-462672265, %eax, %edx
	cmpl	$1487692, %edx
	jbe	.L3947
.L466:
	imull	$128982449, %eax, %edx
	cmpl	$1482556, %edx
	jbe	.L3948
.L467:
	imull	$355078247, %eax, %edx
	cmpl	$1479492, %edx
	jbe	.L3949
.L468:
	imull	$160932085, %eax, %edx
	cmpl	$1476441, %edx
	jbe	.L3950
.L469:
	imull	$281226861, %eax, %edx
	cmpl	$1472391, %edx
	jbe	.L3951
.L470:
	imull	$104182671, %eax, %edx
	cmpl	$1467361, %edx
	jbe	.L3952
.L471:
	imull	$-1750721613, %eax, %edx
	cmpl	$1461370, %edx
	jbe	.L3953
.L472:
	imull	$1656609465, %eax, %edx
	cmpl	$1454442, %edx
	jbe	.L3954
.L473:
	imull	$785788741, %eax, %edx
	cmpl	$1452474, %edx
	jbe	.L3955
.L474:
	imull	$439208603, %eax, %edx
	cmpl	$1449533, %edx
	jbe	.L3956
.L475:
	imull	$1932662953, %eax, %edx
	cmpl	$1446604, %edx
	jbe	.L3957
.L476:
	imull	$2132304531, %eax, %edx
	cmpl	$1445630, %edx
	jbe	.L3958
.L477:
	imull	$1071235591, %eax, %edx
	cmpl	$1432133, %edx
	jbe	.L3959
.L478:
	imull	$719882889, %eax, %edx
	cmpl	$1431178, %edx
	jbe	.L3960
.L479:
	imull	$1078377707, %eax, %edx
	cmpl	$1426425, %edx
	jbe	.L3961
.L480:
	imull	$101007843, %eax, %edx
	cmpl	$1422645, %edx
	jbe	.L3962
.L481:
	imull	$-367977681, %eax, %edx
	cmpl	$1420763, %edx
	jbe	.L3963
.L482:
	imull	$-1470782347, %eax, %edx
	cmpl	$1414213, %edx
	jbe	.L3964
.L483:
	imull	$1611495457, %eax, %edx
	cmpl	$1412353, %edx
	jbe	.L3965
.L484:
	imull	$-1591772071, %eax, %edx
	cmpl	$1408647, %edx
	jbe	.L3966
.L485:
	imull	$-1146353571, %eax, %edx
	cmpl	$1403125, %edx
	jbe	.L3967
.L486:
	imull	$-1022277837, %eax, %edx
	cmpl	$1400380, %edx
	jbe	.L3968
.L487:
	imull	$1486987703, %eax, %edx
	cmpl	$1394922, %edx
	jbe	.L3969
.L488:
	imull	$-362209373, %eax, %edx
	cmpl	$1393112, %edx
	jbe	.L3970
.L489:
	imull	$-1117887247, %eax, %edx
	cmpl	$1390407, %edx
	jbe	.L3971
.L490:
	imull	$733556653, %eax, %edx
	cmpl	$1381462, %edx
	jbe	.L3972
.L491:
	imull	$665107151, %eax, %edx
	cmpl	$1377033, %edx
	jbe	.L3973
.L492:
	imull	$1030737105, %eax, %edx
	cmpl	$1376151, %edx
	jbe	.L3974
.L493:
	imull	$1397883841, %eax, %edx
	cmpl	$1369132, %edx
	jbe	.L3975
.L494:
	imull	$-78756909, %eax, %edx
	cmpl	$1357877, %edx
	jbe	.L3976
.L495:
	imull	$-1522970721, %eax, %edx
	cmpl	$1356162, %edx
	jbe	.L3977
.L496:
	imull	$1082890145, %eax, %edx
	cmpl	$1355306, %edx
	jbe	.L3978
.L497:
	imull	$-542778011, %eax, %edx
	cmpl	$1350194, %edx
	jbe	.L3979
.L498:
	imull	$773552315, %eax, %edx
	cmpl	$1347652, %edx
	jbe	.L3980
.L499:
	imull	$714706247, %eax, %edx
	cmpl	$1345962, %edx
	jbe	.L3981
.L500:
	imull	$-1322147285, %eax, %edx
	cmpl	$1340920, %edx
	jbe	.L3982
.L501:
	imull	$-1022547527, %eax, %edx
	cmpl	$1338412, %edx
	jbe	.L3983
.L502:
	imull	$18691185, %eax, %edx
	cmpl	$1335084, %edx
	jbe	.L3984
.L503:
	imull	$-537370947, %eax, %edx
	cmpl	$1333426, %edx
	jbe	.L3985
.L504:
	imull	$-1065428555, %eax, %edx
	cmpl	$1330123, %edx
	jbe	.L3986
.L505:
	imull	$1910342267, %eax, %edx
	cmpl	$1321121, %edx
	jbe	.L3987
.L506:
	imull	$518881693, %eax, %edx
	cmpl	$1320309, %edx
	jbe	.L3988
.L507:
	imull	$2084845961, %eax, %edx
	cmpl	$1318688, %edx
	jbe	.L3989
.L508:
	imull	$-164734861, %eax, %edx
	cmpl	$1317878, %edx
	jbe	.L3990
.L509:
	imull	$-334826249, %eax, %edx
	cmpl	$1313044, %edx
	jbe	.L3991
.L510:
	imull	$-828008245, %eax, %edx
	cmpl	$1301899, %edx
	jbe	.L3992
.L511:
	imull	$1643303149, %eax, %edx
	cmpl	$1301110, %edx
	jbe	.L3993
.L512:
	imull	$-940295229, %eax, %edx
	cmpl	$1298750, %edx
	jbe	.L3994
.L513:
	imull	$-838769647, %eax, %edx
	cmpl	$1296398, %edx
	jbe	.L3995
.L514:
	imull	$1595569351, %eax, %edx
	cmpl	$1294054, %edx
	jbe	.L3996
.L515:
	imull	$-1041752525, %eax, %edx
	cmpl	$1292496, %edx
	jbe	.L3997
.L516:
	imull	$1806234369, %eax, %edx
	cmpl	$1290167, %edx
	jbe	.L3998
.L517:
	imull	$234669483, %eax, %edx
	cmpl	$1289392, %edx
	jbe	.L3999
.L518:
	imull	$1059930607, %eax, %edx
	cmpl	$1284764, %edx
	jbe	.L4000
.L519:
	imull	$-617233125, %eax, %edx
	cmpl	$1283228, %edx
	jbe	.L4001
.L520:
	imull	$1715941087, %eax, %edx
	cmpl	$1278644, %edx
	jbe	.L4002
.L521:
	imull	$-876628255, %eax, %edx
	cmpl	$1277883, %edx
	jbe	.L4003
.L522:
	imull	$145246595, %eax, %edx
	cmpl	$1274092, %edx
	jbe	.L4004
.L523:
	imull	$2065353381, %eax, %edx
	cmpl	$1273337, %edx
	jbe	.L4005
.L524:
	imull	$1268593173, %eax, %edx
	cmpl	$1267325, %edx
	jbe	.L4006
.L525:
	imull	$2015126207, %eax, %edx
	cmpl	$1266578, %edx
	jbe	.L4007
.L526:
	imull	$470215087, %eax, %edx
	cmpl	$1260630, %edx
	jbe	.L4008
.L527:
	imull	$-314603523, %eax, %edx
	cmpl	$1258414, %edx
	jbe	.L4009
.L528:
	imull	$1950438105, %eax, %edx
	cmpl	$1251082, %edx
	jbe	.L4010
.L529:
	imull	$-171848503, %eax, %edx
	cmpl	$1245279, %edx
	jbe	.L4011
.L530:
	imull	$1951806081, %eax, %edx
	cmpl	$1242397, %edx
	jbe	.L4012
.L531:
	imull	$-2135694515, %eax, %edx
	cmpl	$1240961, %edx
	jbe	.L4013
.L532:
	imull	$-1960826825, %eax, %edx
	cmpl	$1240244, %edx
	jbe	.L4014
.L533:
	imull	$86716963, %eax, %edx
	cmpl	$1238813, %edx
	jbe	.L4015
.L534:
	imull	$-1694958267, %eax, %edx
	cmpl	$1238099, %edx
	jbe	.L4016
.L535:
	imull	$1053134347, %eax, %edx
	cmpl	$1230297, %edx
	jbe	.L4017
.L536:
	imull	$1756529923, %eax, %edx
	cmpl	$1227484, %edx
	jbe	.L4018
.L537:
	imull	$-67280889, %eax, %edx
	cmpl	$1223288, %edx
	jbe	.L4019
.L538:
	imull	$1089312149, %eax, %edx
	cmpl	$1221201, %edx
	jbe	.L4020
.L539:
	imull	$594256887, %eax, %edx
	cmpl	$1217739, %edx
	jbe	.L4021
.L540:
	imull	$-1736729479, %eax, %edx
	cmpl	$1217049, %edx
	jbe	.L4022
.L541:
	imull	$737912581, %eax, %edx
	cmpl	$1215671, %edx
	jbe	.L4023
.L542:
	imull	$2118963803, %eax, %edx
	cmpl	$1213610, %edx
	jbe	.L4024
.L543:
	imull	$665895805, %eax, %edx
	cmpl	$1212924, %edx
	jbe	.L4025
.L544:
	imull	$-2116606381, %eax, %edx
	cmpl	$1210873, %edx
	jbe	.L4026
.L545:
	imull	$-886282259, %eax, %edx
	cmpl	$1207469, %edx
	jbe	.L4027
.L546:
	imull	$1424012759, %eax, %edx
	cmpl	$1206790, %edx
	jbe	.L4028
.L547:
	imull	$-1989323973, %eax, %edx
	cmpl	$1202735, %edx
	jbe	.L4029
.L548:
	imull	$-1258145963, %eax, %edx
	cmpl	$1199376, %edx
	jbe	.L4030
.L549:
	imull	$1195110911, %eax, %edx
	cmpl	$1198707, %edx
	jbe	.L4031
.L550:
	imull	$-1555177415, %eax, %edx
	cmpl	$1195370, %edx
	jbe	.L4032
.L551:
	imull	$-548927065, %eax, %edx
	cmpl	$1190731, %edx
	jbe	.L4033
.L552:
	imull	$-1170922443, %eax, %edx
	cmpl	$1188753, %edx
	jbe	.L4034
.L553:
	imull	$1487861217, %eax, %edx
	cmpl	$1187439, %edx
	jbe	.L4035
.L554:
	imull	$-1673887337, %eax, %edx
	cmpl	$1185472, %edx
	jbe	.L4036
.L555:
	imull	$578418895, %eax, %edx
	cmpl	$1182860, %edx
	jbe	.L4037
.L556:
	imull	$1554076701, %eax, %edx
	cmpl	$1180909, %edx
	jbe	.L4038
.L557:
	imull	$1626970867, %eax, %edx
	cmpl	$1178964, %edx
	jbe	.L4039
.L558:
	imull	$1926220643, %eax, %edx
	cmpl	$1173809, %edx
	jbe	.L4040
.L559:
	imull	$-1891844761, %eax, %edx
	cmpl	$1169972, %edx
	jbe	.L4041
.L560:
	imull	$-270116375, %eax, %edx
	cmpl	$1169334, %edx
	jbe	.L4042
.L561:
	imull	$-1488112139, %eax, %edx
	cmpl	$1168062, %edx
	jbe	.L4043
.L562:
	imull	$2003775043, %eax, %edx
	cmpl	$1163632, %edx
	jbe	.L4044
.L563:
	imull	$-773721455, %eax, %edx
	cmpl	$1161743, %edx
	jbe	.L4045
.L564:
	imull	$-892415523, %eax, %edx
	cmpl	$1160488, %edx
	jbe	.L4046
.L565:
	imull	$286022357, %eax, %edx
	cmpl	$1157985, %edx
	jbe	.L4047
.L566:
	imull	$1523275575, %eax, %edx
	cmpl	$1154871, %edx
	jbe	.L4048
.L567:
	imull	$339955823, %eax, %edx
	cmpl	$1152392, %edx
	jbe	.L4049
.L568:
	imull	$-1847767875, %eax, %edx
	cmpl	$1150540, %edx
	jbe	.L4050
.L569:
	imull	$-1508235373, %eax, %edx
	cmpl	$1148694, %edx
	jbe	.L4051
.L570:
	imull	$1701542481, %eax, %edx
	cmpl	$1141974, %edx
	jbe	.L4052
.L571:
	imull	$-518770937, %eax, %edx
	cmpl	$1140155, %edx
	jbe	.L4053
.L572:
	imull	$1695651721, %eax, %edx
	cmpl	$1139550, %edx
	jbe	.L4054
.L573:
	imull	$1018335723, %eax, %edx
	cmpl	$1136535, %edx
	jbe	.L4055
.L574:
	imull	$-48690639, %eax, %edx
	cmpl	$1132340, %edx
	jbe	.L4056
.L575:
	imull	$225098365, %eax, %edx
	cmpl	$1131147, %edx
	jbe	.L4057
.L576:
	imull	$-979157677, %eax, %edx
	cmpl	$1129362, %edx
	jbe	.L4058
.L577:
	imull	$767721189, %eax, %edx
	cmpl	$1124042, %edx
	jbe	.L4059
.L578:
	imull	$2079514639, %eax, %edx
	cmpl	$1123454, %edx
	jbe	.L4060
.L579:
	imull	$1332302665, %eax, %edx
	cmpl	$1120523, %edx
	jbe	.L4061
.L580:
	imull	$-433181001, %eax, %edx
	cmpl	$1116445, %edx
	jbe	.L4062
.L581:
	imull	$-325663581, %eax, %edx
	cmpl	$1115286, %edx
	jbe	.L4063
.L582:
	imull	$410212293, %eax, %edx
	cmpl	$1114707, %edx
	jbe	.L4064
.L583:
	imull	$760486055, %eax, %edx
	cmpl	$1111821, %edx
	jbe	.L4065
.L584:
	imull	$-1444580179, %eax, %edx
	cmpl	$1107806, %edx
	jbe	.L585
.L587:
	cmpl	$15062160, %eax
	jbe	.L225
	imull	$-2142503655, %eax, %edx
	cmpl	$1106665, %edx
	jbe	.L4066
.L588:
	imull	$-870258223, %eax, %edx
	cmpl	$1104388, %edx
	jbe	.L4067
.L589:
	imull	$318797163, %eax, %edx
	cmpl	$1099300, %edx
	jbe	.L4068
.L590:
	imull	$1391389303, %eax, %edx
	cmpl	$1098176, %edx
	jbe	.L4069
.L591:
	imull	$-1398029947, %eax, %edx
	cmpl	$1096494, %edx
	jbe	.L4070
.L592:
	imull	$-1808291921, %eax, %edx
	cmpl	$1095934, %edx
	jbe	.L4071
.L593:
	imull	$460917979, %eax, %edx
	cmpl	$1094817, %edx
	jbe	.L4072
.L594:
	imull	$1300842729, %eax, %edx
	cmpl	$1093145, %edx
	jbe	.L4073
.L595:
	imull	$340887763, %eax, %edx
	cmpl	$1092588, %edx
	jbe	.L4074
.L596:
	imull	$1839766615, %eax, %edx
	cmpl	$1089263, %edx
	jbe	.L4075
.L597:
	imull	$556049731, %eax, %edx
	cmpl	$1088159, %edx
	jbe	.L4076
.L598:
	imull	$1664069759, %eax, %edx
	cmpl	$1082673, %edx
	jbe	.L4077
.L599:
	imull	$-163658819, %eax, %edx
	cmpl	$1076702, %edx
	jbe	.L4078
.L600:
	imull	$-447638431, %eax, %edx
	cmpl	$1073473, %edx
	jbe	.L4079
.L601:
	imull	$-1222075381, %eax, %edx
	cmpl	$1072937, %edx
	jbe	.L4080
.L602:
	imull	$2074060823, %eax, %edx
	cmpl	$1071866, %edx
	jbe	.L4081
.L603:
	imull	$-1409536987, %eax, %edx
	cmpl	$1070263, %edx
	jbe	.L4082
.L604:
	imull	$1015232379, %eax, %edx
	cmpl	$1068665, %edx
	jbe	.L4083
.L605:
	imull	$-989092195, %eax, %edx
	cmpl	$1068134, %edx
	jbe	.L4084
.L606:
	imull	$1705401715, %eax, %edx
	cmpl	$1066542, %edx
	jbe	.L4085
.L607:
	imull	$1808574769, %eax, %edx
	cmpl	$1060747, %edx
	jbe	.L4086
.L608:
	imull	$1241522267, %eax, %edx
	cmpl	$1060223, %edx
	jbe	.L4087
.L609:
	imull	$1029013609, %eax, %edx
	cmpl	$1058655, %edx
	jbe	.L4088
.L610:
	imull	$-330057639, %eax, %edx
	cmpl	$1054497, %edx
	jbe	.L4089
.L611:
	imull	$-236912881, %eax, %edx
	cmpl	$1052946, %edx
	jbe	.L4090
.L612:
	imull	$1752212275, %eax, %edx
	cmpl	$1049857, %edx
	jbe	.L4091
.L613:
	imull	$158451029, %eax, %edx
	cmpl	$1049344, %edx
	jbe	.L4092
.L614:
	imull	$-2067326293, %eax, %edx
	cmpl	$1047808, %edx
	jbe	.L4093
.L615:
	imull	$1773985519, %eax, %edx
	cmpl	$1044750, %edx
	jbe	.L4094
.L616:
	imull	$1009478623, %eax, %edx
	cmpl	$1040699, %edx
	jbe	.L4095
.L617:
	imull	$-28085279, %eax, %edx
	cmpl	$1040195, %edx
	jbe	.L4096
.L618:
	imull	$-1491235923, %eax, %edx
	cmpl	$1039188, %edx
	jbe	.L4097
.L619:
	imull	$1596993155, %eax, %edx
	cmpl	$1037682, %edx
	jbe	.L4098
.L620:
	imull	$-446767607, %eax, %edx
	cmpl	$1034184, %edx
	jbe	.L4099
.L621:
	imull	$-779024619, %eax, %edx
	cmpl	$1033189, %edx
	jbe	.L4100
.L622:
	imull	$-84680769, %eax, %edx
	cmpl	$1032692, %edx
	jbe	.L4101
.L623:
	imull	$678639793, %eax, %edx
	cmpl	$1028242, %edx
	jbe	.L4102
.L624:
	imull	$1067352025, %eax, %edx
	cmpl	$1022367, %edx
	jbe	.L4103
.L625:
	imull	$1659442363, %eax, %edx
	cmpl	$1019939, %edx
	jbe	.L4104
.L626:
	imull	$1203853769, %eax, %edx
	cmpl	$1018488, %edx
	jbe	.L4105
.L627:
	imull	$1193103027, %eax, %edx
	cmpl	$1018005, %edx
	jbe	.L4106
.L628:
	imull	$29452365, %eax, %edx
	cmpl	$1015598, %edx
	jbe	.L4107
.L629:
	imull	$-309611209, %eax, %edx
	cmpl	$1015118, %edx
	jbe	.L4108
.L630:
	imull	$1707454577, %eax, %edx
	cmpl	$1012725, %edx
	jbe	.L4109
.L631:
	imull	$-1007186533, %eax, %edx
	cmpl	$1012247, %edx
	jbe	.L4110
.L632:
	imull	$535229877, %eax, %edx
	cmpl	$1009867, %edx
	jbe	.L4111
.L633:
	imull	$838017803, %eax, %edx
	cmpl	$1008445, %edx
	jbe	.L4112
.L634:
	imull	$-470722771, %eax, %edx
	cmpl	$1007971, %edx
	jbe	.L4113
.L635:
	imull	$-670742961, %eax, %edx
	cmpl	$1005611, %edx
	jbe	.L4114
.L636:
	imull	$915683409, %eax, %edx
	cmpl	$1005140, %edx
	jbe	.L4115
.L637:
	imull	$-137382797, %eax, %edx
	cmpl	$1002794, %edx
	jbe	.L4116
.L638:
	imull	$917274433, %eax, %edx
	cmpl	$1001391, %edx
	jbe	.L4117
.L639:
	imull	$500763001, %eax, %edx
	cmpl	$999526, %edx
	jbe	.L4118
.L640:
	imull	$2008023767, %eax, %edx
	cmpl	$992597, %edx
	jbe	.L4119
.L641:
	imull	$-2081628143, %eax, %edx
	cmpl	$990308, %edx
	jbe	.L4120
.L642:
	imull	$1138329659, %eax, %edx
	cmpl	$989851, %edx
	jbe	.L4121
.L643:
	imull	$678464597, %eax, %edx
	cmpl	$987575, %edx
	jbe	.L4122
.L644:
	imull	$-282913843, %eax, %edx
	cmpl	$985762, %edx
	jbe	.L4123
.L645:
	imull	$1283666595, %eax, %edx
	cmpl	$984406, %edx
	jbe	.L4124
.L646:
	imull	$-197413315, %eax, %edx
	cmpl	$982155, %edx
	jbe	.L4125
.L647:
	imull	$753159831, %eax, %edx
	cmpl	$978129, %edx
	jbe	.L4126
.L648:
	imull	$498165413, %eax, %edx
	cmpl	$976794, %edx
	jbe	.L4127
.L649:
	imull	$-778334967, %eax, %edx
	cmpl	$974136, %edx
	jbe	.L4128
.L650:
	imull	$1169676685, %eax, %edx
	cmpl	$971492, %edx
	jbe	.L4129
.L651:
	imull	$-1710995337, %eax, %edx
	cmpl	$971052, %edx
	jbe	.L4130
.L652:
	imull	$1738876649, %eax, %edx
	cmpl	$967117, %edx
	jbe	.L4131
.L653:
	imull	$409504415, %eax, %edx
	cmpl	$965812, %edx
	jbe	.L4132
.L654:
	imull	$-146671541, %eax, %edx
	cmpl	$964944, %edx
	jbe	.L4133
.L655:
	imull	$1105301209, %eax, %edx
	cmpl	$963645, %edx
	jbe	.L4134
.L656:
	imull	$-1760137841, %eax, %edx
	cmpl	$962349, %edx
	jbe	.L4135
.L657:
	imull	$567422593, %eax, %edx
	cmpl	$958484, %edx
	jbe	.L4136
.L658:
	imull	$-330529493, %eax, %edx
	cmpl	$958056, %edx
	jbe	.L4137
.L659:
	imull	$2029427013, %eax, %edx
	cmpl	$955924, %edx
	jbe	.L4138
.L660:
	imull	$207744147, %eax, %edx
	cmpl	$952954, %edx
	jbe	.L4139
.L661:
	imull	$-1120136607, %eax, %edx
	cmpl	$951687, %edx
	jbe	.L4140
.L662:
	imull	$1514696237, %eax, %edx
	cmpl	$950845, %edx
	jbe	.L4141
.L663:
	imull	$827819543, %eax, %edx
	cmpl	$950424, %edx
	jbe	.L4142
.L664:
	imull	$2045403395, %eax, %edx
	cmpl	$949583, %edx
	jbe	.L4143
.L665:
	imull	$435447531, %eax, %edx
	cmpl	$944571, %edx
	jbe	.L4144
.L666:
	imull	$179389709, %eax, %edx
	cmpl	$944156, %edx
	jbe	.L4145
.L667:
	imull	$714729265, %eax, %edx
	cmpl	$941672, %edx
	jbe	.L4146
.L668:
	imull	$-428838425, %eax, %edx
	cmpl	$940435, %edx
	jbe	.L4147
.L669:
	imull	$-1167691305, %eax, %edx
	cmpl	$937151, %edx
	jbe	.L4148
.L670:
	imull	$-724091633, %eax, %edx
	cmpl	$935518, %edx
	jbe	.L4149
.L671:
	imull	$682971741, %eax, %edx
	cmpl	$934297, %edx
	jbe	.L4150
.L672:
	imull	$-383495885, %eax, %edx
	cmpl	$933080, %edx
	jbe	.L4151
.L673:
	imull	$-1063285563, %eax, %edx
	cmpl	$929445, %edx
	jbe	.L4152
.L674:
	imull	$1329152053, %eax, %edx
	cmpl	$926238, %edx
	jbe	.L4153
.L675:
	imull	$1448012255, %eax, %edx
	cmpl	$925839, %edx
	jbe	.L4154
.L676:
	imull	$226635147, %eax, %edx
	cmpl	$925041, %edx
	jbe	.L4155
.L677:
	imull	$-2007520743, %eax, %edx
	cmpl	$923847, %edx
	jbe	.L4156
.L678:
	imull	$1324227715, %eax, %edx
	cmpl	$923450, %edx
	jbe	.L4157
.L679:
	imull	$-1295776047, %eax, %edx
	cmpl	$922260, %edx
	jbe	.L4158
.L680:
	imull	$-1923202169, %eax, %edx
	cmpl	$921073, %edx
	jbe	.L4159
.L681:
	imull	$-1545011775, %eax, %edx
	cmpl	$919102, %edx
	jbe	.L4160
.L682:
	imull	$-863766665, %eax, %edx
	cmpl	$917924, %edx
	jbe	.L4161
.L683:
	imull	$-1058405925, %eax, %edx
	cmpl	$915576, %edx
	jbe	.L4162
.L684:
	imull	$-881276513, %eax, %edx
	cmpl	$913239, %edx
	jbe	.L4163
.L685:
	imull	$1528393361, %eax, %edx
	cmpl	$909757, %edx
	jbe	.L4164
.L686:
	imull	$1114890939, %eax, %edx
	cmpl	$909372, %edx
	jbe	.L4165
.L687:
	imull	$-1318733879, %eax, %edx
	cmpl	$908218, %edx
	jbe	.L4166
.L688:
	imull	$772241109, %eax, %edx
	cmpl	$907451, %edx
	jbe	.L4167
.L689:
	imull	$988990575, %eax, %edx
	cmpl	$904013, %edx
	jbe	.L4168
.L690:
	imull	$809536807, %eax, %edx
	cmpl	$902493, %edx
	jbe	.L4169
.L691:
	imull	$1697154127, %eax, %edx
	cmpl	$897965, %edx
	jbe	.L4170
.L692:
	imull	$727641211, %eax, %edx
	cmpl	$897214, %edx
	jbe	.L4171
.L693:
	imull	$1963183005, %eax, %edx
	cmpl	$896840, %edx
	jbe	.L4172
.L694:
	imull	$-1492888695, %eax, %edx
	cmpl	$896091, %edx
	jbe	.L4173
.L695:
	imull	$1305763135, %eax, %edx
	cmpl	$894971, %edx
	jbe	.L4174
.L696:
	imull	$-1298956991, %eax, %edx
	cmpl	$894598, %edx
	jbe	.L4175
.L697:
	imull	$1418865157, %eax, %edx
	cmpl	$892368, %edx
	jbe	.L4176
.L698:
	imull	$1857259057, %eax, %edx
	cmpl	$891627, %edx
	jbe	.L4177
.L699:
	imull	$1510484255, %eax, %edx
	cmpl	$889043, %edx
	jbe	.L4178
.L700:
	imull	$-1845749163, %eax, %edx
	cmpl	$883556, %edx
	jbe	.L4179
.L701:
	imull	$1401088695, %eax, %edx
	cmpl	$881742, %edx
	jbe	.L4180
.L702:
	imull	$-565382203, %eax, %edx
	cmpl	$880657, %edx
	jbe	.L4181
.L703:
	imull	$109812009, %eax, %edx
	cmpl	$878496, %edx
	jbe	.L4182
.L704:
	imull	$1078340759, %eax, %edx
	cmpl	$875987, %edx
	jbe	.L4183
.L705:
	imull	$-1487358811, %eax, %edx
	cmpl	$874916, %edx
	jbe	.L4184
.L706:
	imull	$1011094151, %eax, %edx
	cmpl	$873138, %edx
	jbe	.L4185
.L707:
	imull	$-330985109, %eax, %edx
	cmpl	$871013, %edx
	jbe	.L4186
.L708:
	imull	$-178485363, %eax, %edx
	cmpl	$870660, %edx
	jbe	.L4187
.L709:
	imull	$749031161, %eax, %edx
	cmpl	$869954, %edx
	jbe	.L4188
.L710:
	imull	$-167697489, %eax, %edx
	cmpl	$868898, %edx
	jbe	.L4189
.L711:
	imull	$1788774503, %eax, %edx
	cmpl	$867494, %edx
	jbe	.L4190
.L712:
	imull	$-1283204875, %eax, %edx
	cmpl	$866444, %edx
	jbe	.L4191
.L713:
	imull	$-1987946409, %eax, %edx
	cmpl	$864700, %edx
	jbe	.L4192
.L714:
	imull	$-1071797031, %eax, %edx
	cmpl	$864352, %edx
	jbe	.L4193
.L715:
	imull	$2062413413, %eax, %edx
	cmpl	$863657, %edx
	jbe	.L4194
.L716:
	imull	$-1469262925, %eax, %edx
	cmpl	$861232, %edx
	jbe	.L4195
.L717:
	imull	$446442625, %eax, %edx
	cmpl	$860197, %edx
	jbe	.L4196
.L718:
	imull	$-1875557833, %eax, %edx
	cmpl	$859165, %edx
	jbe	.L4197
.L719:
	imull	$-1672315869, %eax, %edx
	cmpl	$858478, %edx
	jbe	.L4198
.L720:
	imull	$820579697, %eax, %edx
	cmpl	$857450, %edx
	jbe	.L4199
.L721:
	imull	$2065629851, %eax, %edx
	cmpl	$857107, %edx
	jbe	.L4200
.L722:
	imull	$931531445, %eax, %edx
	cmpl	$855400, %edx
	jbe	.L4201
.L723:
	imull	$-1861466017, %eax, %edx
	cmpl	$855060, %edx
	jbe	.L4202
.L724:
	imull	$612836175, %eax, %edx
	cmpl	$852345, %edx
	jbe	.L4203
.L725:
	imull	$1632614771, %eax, %edx
	cmpl	$850320, %edx
	jbe	.L4204
.L726:
	imull	$-2063010581, %eax, %edx
	cmpl	$848975, %edx
	jbe	.L4205
.L727:
	imull	$669158781, %eax, %edx
	cmpl	$845965, %edx
	jbe	.L4206
.L728:
	imull	$272186473, %eax, %edx
	cmpl	$845299, %edx
	jbe	.L4207
.L729:
	imull	$2104846367, %eax, %edx
	cmpl	$844302, %edx
	jbe	.L4208
.L730:
	imull	$-283018045, %eax, %edx
	cmpl	$842315, %edx
	jbe	.L4209
.L731:
	imull	$142295525, %eax, %edx
	cmpl	$841985, %edx
	jbe	.L4210
.L732:
	imull	$-1761886917, %eax, %edx
	cmpl	$840996, %edx
	jbe	.L4211
.L733:
	imull	$1430535753, %eax, %edx
	cmpl	$840009, %edx
	jbe	.L4212
.L734:
	imull	$-1099961345, %eax, %edx
	cmpl	$839024, %edx
	jbe	.L4213
.L735:
	imull	$-433084909, %eax, %edx
	cmpl	$834460, %edx
	jbe	.L4214
.L736:
	imull	$-793481247, %eax, %edx
	cmpl	$833488, %edx
	jbe	.L4215
.L737:
	imull	$935965391, %eax, %edx
	cmpl	$831230, %edx
	jbe	.L4216
.L738:
	imull	$666961659, %eax, %edx
	cmpl	$830587, %edx
	jbe	.L4217
.L739:
	imull	$-596269837, %eax, %edx
	cmpl	$829304, %edx
	jbe	.L4218
.L740:
	imull	$1768808077, %eax, %edx
	cmpl	$827706, %edx
	jbe	.L4219
.L741:
	imull	$-1319811963, %eax, %edx
	cmpl	$826432, %edx
	jbe	.L4220
.L742:
	imull	$1642460137, %eax, %edx
	cmpl	$824528, %edx
	jbe	.L4221
.L743:
	imull	$962197571, %eax, %edx
	cmpl	$821688, %edx
	jbe	.L4222
.L744:
	imull	$167496335, %eax, %edx
	cmpl	$821060, %edx
	jbe	.L4223
.L745:
	imull	$1744907409, %eax, %edx
	cmpl	$820746, %edx
	jbe	.L4224
.L746:
	imull	$-168944675, %eax, %edx
	cmpl	$820119, %edx
	jbe	.L4225
.L747:
	imull	$2004209221, %eax, %edx
	cmpl	$816378, %edx
	jbe	.L4226
.L748:
	imull	$-39911511, %eax, %edx
	cmpl	$814520, %edx
	jbe	.L4227
.L749:
	imull	$-1617426593, %eax, %edx
	cmpl	$813594, %edx
	jbe	.L4228
.L750:
	imull	$-2129997983, %eax, %edx
	cmpl	$813286, %edx
	jbe	.L4229
.L751:
	imull	$125678673, %eax, %edx
	cmpl	$810830, %edx
	jbe	.L4230
.L752:
	imull	$1742932231, %eax, %edx
	cmpl	$809912, %edx
	jbe	.L4231
.L753:
	imull	$-1114798443, %eax, %edx
	cmpl	$808997, %edx
	jbe	.L4232
.L754:
	imull	$-1566134045, %eax, %edx
	cmpl	$806869, %edx
	jbe	.L4233
.L755:
	imull	$-1671920515, %eax, %edx
	cmpl	$805356, %edx
	jbe	.L4234
.L756:
	imull	$769511627, %eax, %edx
	cmpl	$803248, %edx
	jbe	.L4235
.L757:
	imull	$1407041239, %eax, %edx
	cmpl	$802647, %edx
	jbe	.L4236
.L758:
	imull	$-1272287283, %eax, %edx
	cmpl	$798172, %edx
	jbe	.L4237
.L759:
	imull	$1675890339, %eax, %edx
	cmpl	$797283, %edx
	jbe	.L4238
.L760:
	imull	$-453149711, %eax, %edx
	cmpl	$796396, %edx
	jbe	.L4239
.L761:
	imull	$312636071, %eax, %edx
	cmpl	$795511, %edx
	jbe	.L4240
.L762:
	imull	$1456809695, %eax, %edx
	cmpl	$794334, %edx
	jbe	.L4241
.L763:
	imull	$-622068051, %eax, %edx
	cmpl	$793454, %edx
	jbe	.L4242
.L764:
	imull	$-150644967, %eax, %edx
	cmpl	$792868, %edx
	jbe	.L4243
.L765:
	imull	$-811597437, %eax, %edx
	cmpl	$792575, %edx
	jbe	.L766
.L768:
	cmpl	$29495760, %eax
	jbe	.L225
	imull	$-1726369657, %eax, %edx
	cmpl	$790824, %edx
	jbe	.L4244
.L769:
	imull	$1697606165, %eax, %edx
	cmpl	$789951, %edx
	jbe	.L4245
.L770:
	imull	$-149980479, %eax, %edx
	cmpl	$789370, %edx
	jbe	.L4246
.L771:
	imull	$80486251, %eax, %edx
	cmpl	$789080, %edx
	jbe	.L4247
.L772:
	imull	$-437457671, %eax, %edx
	cmpl	$788212, %edx
	jbe	.L4248
.L773:
	imull	$387810975, %eax, %edx
	cmpl	$785042, %edx
	jbe	.L4249
.L774:
	imull	$569316461, %eax, %edx
	cmpl	$784182, %edx
	jbe	.L4250
.L775:
	imull	$583218775, %eax, %edx
	cmpl	$783896, %edx
	jbe	.L4251
.L776:
	imull	$1330868035, %eax, %edx
	cmpl	$783324, %edx
	jbe	.L4252
.L777:
	imull	$-1883976747, %eax, %edx
	cmpl	$780761, %edx
	jbe	.L4253
.L778:
	imull	$466725503, %eax, %edx
	cmpl	$780477, %edx
	jbe	.L4254
.L779:
	imull	$1319608619, %eax, %edx
	cmpl	$779910, %edx
	jbe	.L4255
.L780:
	imull	$-579770001, %eax, %edx
	cmpl	$778214, %edx
	jbe	.L4256
.L781:
	imull	$-1999287439, %eax, %edx
	cmpl	$777932, %edx
	jbe	.L4257
.L782:
	imull	$-1917076953, %eax, %edx
	cmpl	$777088, %edx
	jbe	.L4258
.L783:
	imull	$2074101907, %eax, %edx
	cmpl	$776526, %edx
	jbe	.L4259
.L784:
	imull	$-321523555, %eax, %edx
	cmpl	$772893, %edx
	jbe	.L4260
.L785:
	imull	$-1775736973, %eax, %edx
	cmpl	$772059, %edx
	jbe	.L4261
.L786:
	imull	$834468417, %eax, %edx
	cmpl	$771227, %edx
	jbe	.L4262
.L787:
	imull	$1542889741, %eax, %edx
	cmpl	$770674, %edx
	jbe	.L4263
.L788:
	imull	$1594547973, %eax, %edx
	cmpl	$769569, %edx
	jbe	.L4264
.L789:
	imull	$-18436633, %eax, %edx
	cmpl	$768193, %edx
	jbe	.L4265
.L790:
	imull	$1750678471, %eax, %edx
	cmpl	$763821, %edx
	jbe	.L4266
.L791:
	imull	$-671778889, %eax, %edx
	cmpl	$761654, %edx
	jbe	.L4267
.L792:
	imull	$254302265, %eax, %edx
	cmpl	$761384, %edx
	jbe	.L4268
.L793:
	imull	$1854281967, %eax, %edx
	cmpl	$760575, %edx
	jbe	.L4269
.L794:
	imull	$-1745804261, %eax, %edx
	cmpl	$760036, %edx
	jbe	.L4270
.L795:
	imull	$-1553725123, %eax, %edx
	cmpl	$759767, %edx
	jbe	.L4271
.L796:
	imull	$1567811113, %eax, %edx
	cmpl	$759230, %edx
	jbe	.L4272
.L797:
	imull	$1678824467, %eax, %edx
	cmpl	$758962, %edx
	jbe	.L4273
.L798:
	imull	$1537217965, %eax, %edx
	cmpl	$757623, %edx
	jbe	.L4274
.L799:
	imull	$-2074553093, %eax, %edx
	cmpl	$755757, %edx
	jbe	.L4275
.L800:
	imull	$2117662729, %eax, %edx
	cmpl	$754959, %edx
	jbe	.L4276
.L801:
	imull	$-84496107, %eax, %edx
	cmpl	$754429, %edx
	jbe	.L4277
.L802:
	imull	$-1945203571, %eax, %edx
	cmpl	$753370, %edx
	jbe	.L4278
.L803:
	imull	$1704149167, %eax, %edx
	cmpl	$752051, %edx
	jbe	.L4279
.L804:
	imull	$979646205, %eax, %edx
	cmpl	$751262, %edx
	jbe	.L4280
.L805:
	imull	$-1816208935, %eax, %edx
	cmpl	$748643, %edx
	jbe	.L4281
.L806:
	imull	$-1852349595, %eax, %edx
	cmpl	$748121, %edx
	jbe	.L4282
.L807:
	imull	$-1799354225, %eax, %edx
	cmpl	$747861, %edx
	jbe	.L4283
.L808:
	imull	$-1219982883, %eax, %edx
	cmpl	$747080, %edx
	jbe	.L4284
.L809:
	imull	$-1992525925, %eax, %edx
	cmpl	$743202, %edx
	jbe	.L4285
.L810:
	imull	$-1950299865, %eax, %edx
	cmpl	$742688, %edx
	jbe	.L4286
.L811:
	imull	$862553439, %eax, %edx
	cmpl	$741662, %edx
	jbe	.L4287
.L812:
	imull	$104394137, %eax, %edx
	cmpl	$740383, %edx
	jbe	.L4288
.L813:
	imull	$-36241329, %eax, %edx
	cmpl	$739618, %edx
	jbe	.L4289
.L814:
	imull	$265987997, %eax, %edx
	cmpl	$738855, %edx
	jbe	.L4290
.L815:
	imull	$1604064405, %eax, %edx
	cmpl	$737840, %edx
	jbe	.L4291
.L816:
	imull	$-251344405, %eax, %edx
	cmpl	$737080, %edx
	jbe	.L4292
.L817:
	imull	$641413167, %eax, %edx
	cmpl	$735565, %edx
	jbe	.L4293
.L818:
	imull	$-1861176997, %eax, %edx
	cmpl	$735062, %edx
	jbe	.L4294
.L819:
	imull	$416352617, %eax, %edx
	cmpl	$734307, %edx
	jbe	.L4295
.L820:
	imull	$-753142445, %eax, %edx
	cmpl	$734056, %edx
	jbe	.L4296
.L821:
	imull	$1013427489, %eax, %edx
	cmpl	$733304, %edx
	jbe	.L4297
.L822:
	imull	$1926543085, %eax, %edx
	cmpl	$732804, %edx
	jbe	.L4298
.L823:
	imull	$618586563, %eax, %edx
	cmpl	$732055, %edx
	jbe	.L4299
.L824:
	imull	$1664857829, %eax, %edx
	cmpl	$731805, %edx
	jbe	.L4300
.L825:
	imull	$1419479751, %eax, %edx
	cmpl	$730560, %edx
	jbe	.L4301
.L826:
	imull	$-1571632311, %eax, %edx
	cmpl	$730312, %edx
	jbe	.L4302
.L827:
	imull	$-766204103, %eax, %edx
	cmpl	$728330, %edx
	jbe	.L4303
.L828:
	imull	$598079471, %eax, %edx
	cmpl	$727590, %edx
	jbe	.L4304
.L829:
	imull	$1949159563, %eax, %edx
	cmpl	$725133, %edx
	jbe	.L4305
.L830:
	imull	$1873930391, %eax, %edx
	cmpl	$724644, %edx
	jbe	.L4306
.L831:
	imull	$-1188185093, %eax, %edx
	cmpl	$723180, %edx
	jbe	.L4307
.L832:
	imull	$2064152769, %eax, %edx
	cmpl	$721479, %edx
	jbe	.L4308
.L833:
	imull	$-555092747, %eax, %edx
	cmpl	$718101, %edx
	jbe	.L4309
.L834:
	imull	$-1861606837, %eax, %edx
	cmpl	$717382, %edx
	jbe	.L4310
.L835:
	imull	$-1118965177, %eax, %edx
	cmpl	$714993, %edx
	jbe	.L4311
.L836:
	imull	$1356869555, %eax, %edx
	cmpl	$714517, %edx
	jbe	.L4312
.L837:
	imull	$71238469, %eax, %edx
	cmpl	$712384, %edx
	jbe	.L4313
.L838:
	imull	$-1817019459, %eax, %edx
	cmpl	$711440, %edx
	jbe	.L4314
.L839:
	imull	$-1899792749, %eax, %edx
	cmpl	$710734, %edx
	jbe	.L4315
.L840:
	imull	$-1397799841, %eax, %edx
	cmpl	$710264, %edx
	jbe	.L4316
.L841:
	imull	$1485109293, %eax, %edx
	cmpl	$709560, %edx
	jbe	.L4317
.L842:
	imull	$2090495867, %eax, %edx
	cmpl	$707922, %edx
	jbe	.L4318
.L843:
	imull	$-585580919, %eax, %edx
	cmpl	$707223, %edx
	jbe	.L4319
.L844:
	imull	$1750063167, %eax, %edx
	cmpl	$706525, %edx
	jbe	.L4320
.L845:
	imull	$-1886145927, %eax, %edx
	cmpl	$705364, %edx
	jbe	.L4321
.L846:
	imull	$712889827, %eax, %edx
	cmpl	$705133, %edx
	jbe	.L4322
.L847:
	imull	$309750141, %eax, %edx
	cmpl	$703977, %edx
	jbe	.L4323
.L848:
	imull	$1797942305, %eax, %edx
	cmpl	$702595, %edx
	jbe	.L4324
.L849:
	imull	$-1373884327, %eax, %edx
	cmpl	$701677, %edx
	jbe	.L4325
.L850:
	imull	$578640187, %eax, %edx
	cmpl	$700532, %edx
	jbe	.L4326
.L851:
	imull	$-148464547, %eax, %edx
	cmpl	$700304, %edx
	jbe	.L4327
.L852:
	imull	$-37754881, %eax, %edx
	cmpl	$699164, %edx
	jbe	.L4328
.L853:
	imull	$776459703, %eax, %edx
	cmpl	$698255, %edx
	jbe	.L4329
.L854:
	imull	$-1740148197, %eax, %edx
	cmpl	$696895, %edx
	jbe	.L4330
.L855:
	imull	$-2083821003, %eax, %edx
	cmpl	$695766, %edx
	jbe	.L4331
.L856:
	imull	$-115049955, %eax, %edx
	cmpl	$693072, %edx
	jbe	.L4332
.L857:
	imull	$-2014110329, %eax, %edx
	cmpl	$692848, %edx
	jbe	.L4333
.L858:
	imull	$-366280461, %eax, %edx
	cmpl	$692401, %edx
	jbe	.L4334
.L859:
	imull	$1232270443, %eax, %edx
	cmpl	$691509, %edx
	jbe	.L4335
.L860:
	imull	$297753081, %eax, %edx
	cmpl	$690842, %edx
	jbe	.L4336
.L861:
	imull	$-311369595, %eax, %edx
	cmpl	$690398, %edx
	jbe	.L4337
.L862:
	imull	$-158587651, %eax, %edx
	cmpl	$689511, %edx
	jbe	.L4338
.L863:
	imull	$-1345485993, %eax, %edx
	cmpl	$687524, %edx
	jbe	.L4339
.L864:
	imull	$577284241, %eax, %edx
	cmpl	$686425, %edx
	jbe	.L4340
.L865:
	imull	$-938131129, %eax, %edx
	cmpl	$685768, %edx
	jbe	.L4341
.L866:
	imull	$-485744427, %eax, %edx
	cmpl	$685112, %edx
	jbe	.L4342
.L867:
	imull	$2072487807, %eax, %edx
	cmpl	$684893, %edx
	jbe	.L4343
.L868:
	imull	$298328141, %eax, %edx
	cmpl	$684238, %edx
	jbe	.L4344
.L869:
	imull	$125699695, %eax, %edx
	cmpl	$683150, %edx
	jbe	.L4345
.L870:
	imull	$1245056403, %eax, %edx
	cmpl	$681849, %edx
	jbe	.L4346
.L871:
	imull	$597110197, %eax, %edx
	cmpl	$681632, %edx
	jbe	.L4347
.L872:
	imull	$311693079, %eax, %edx
	cmpl	$680552, %edx
	jbe	.L4348
.L873:
	imull	$121703205, %eax, %edx
	cmpl	$679906, %edx
	jbe	.L4349
.L874:
	imull	$1840797307, %eax, %edx
	cmpl	$679260, %edx
	jbe	.L4350
.L875:
	imull	$1389129097, %eax, %edx
	cmpl	$678617, %edx
	jbe	.L4351
.L876:
	imull	$-629639359, %eax, %edx
	cmpl	$677760, %edx
	jbe	.L4352
.L877:
	imull	$-1800460041, %eax, %edx
	cmpl	$677119, %edx
	jbe	.L4353
.L878:
	imull	$-1894301647, %eax, %edx
	cmpl	$676053, %edx
	jbe	.L4354
.L879:
	imull	$914512615, %eax, %edx
	cmpl	$675415, %edx
	jbe	.L4355
.L880:
	imull	$1335551849, %eax, %edx
	cmpl	$675203, %edx
	jbe	.L4356
.L881:
	imull	$-373710049, %eax, %edx
	cmpl	$674566, %edx
	jbe	.L4357
.L882:
	imull	$-1208359699, %eax, %edx
	cmpl	$673931, %edx
	jbe	.L4358
.L883:
	imull	$-2120888381, %eax, %edx
	cmpl	$673297, %edx
	jbe	.L4359
.L884:
	imull	$-1028533411, %eax, %edx
	cmpl	$672244, %edx
	jbe	.L4360
.L885:
	imull	$2064565333, %eax, %edx
	cmpl	$671403, %edx
	jbe	.L4361
.L886:
	imull	$1462201917, %eax, %edx
	cmpl	$668893, %edx
	jbe	.L4362
.L887:
	imull	$398956819, %eax, %edx
	cmpl	$668269, %edx
	jbe	.L4363
.L888:
	imull	$-1557749807, %eax, %edx
	cmpl	$665989, %edx
	jbe	.L4364
.L889:
	imull	$-236353029, %eax, %edx
	cmpl	$665783, %edx
	jbe	.L4365
.L890:
	imull	$-667250291, %eax, %edx
	cmpl	$663930, %edx
	jbe	.L4366
.L891:
	imull	$810821881, %eax, %edx
	cmpl	$663520, %edx
	jbe	.L4367
.L892:
	imull	$915853233, %eax, %edx
	cmpl	$662701, %edx
	jbe	.L4368
.L893:
	imull	$-2014155053, %eax, %edx
	cmpl	$661680, %edx
	jbe	.L4369
.L894:
	imull	$-263454519, %eax, %edx
	cmpl	$658636, %edx
	jbe	.L4370
.L895:
	imull	$1294608001, %eax, %edx
	cmpl	$657829, %edx
	jbe	.L4371
.L896:
	imull	$1817177243, %eax, %edx
	cmpl	$656020, %edx
	jbe	.L4372
.L897:
	imull	$1315173927, %eax, %edx
	cmpl	$655620, %edx
	jbe	.L4373
.L898:
	imull	$119286441, %eax, %edx
	cmpl	$655420, %edx
	jbe	.L4374
.L899:
	imull	$553640459, %eax, %edx
	cmpl	$654421, %edx
	jbe	.L4375
.L900:
	imull	$1461295769, %eax, %edx
	cmpl	$653823, %edx
	jbe	.L4376
.L901:
	imull	$1182406915, %eax, %edx
	cmpl	$653624, %edx
	jbe	.L4377
.L902:
	imull	$-1258385583, %eax, %edx
	cmpl	$653028, %edx
	jbe	.L4378
.L903:
	imull	$-702231395, %eax, %edx
	cmpl	$652631, %edx
	jbe	.L4379
.L904:
	imull	$-1682450441, %eax, %edx
	cmpl	$650851, %edx
	jbe	.L4380
.L905:
	imull	$1783123247, %eax, %edx
	cmpl	$650063, %edx
	jbe	.L4381
.L906:
	imull	$1863596627, %eax, %edx
	cmpl	$648884, %edx
	jbe	.L4382
.L907:
	imull	$-536466459, %eax, %edx
	cmpl	$647124, %edx
	jbe	.L4383
.L908:
	imull	$917998421, %eax, %edx
	cmpl	$645568, %edx
	jbe	.L4384
.L909:
	imull	$1080352939, %eax, %edx
	cmpl	$644986, %edx
	jbe	.L4385
.L910:
	imull	$669295309, %eax, %edx
	cmpl	$644793, %edx
	jbe	.L4386
.L911:
	imull	$1762268913, %eax, %edx
	cmpl	$643633, %edx
	jbe	.L4387
.L912:
	imull	$1614069159, %eax, %edx
	cmpl	$643055, %edx
	jbe	.L4388
.L913:
	imull	$235006433, %eax, %edx
	cmpl	$642094, %edx
	jbe	.L4389
.L914:
	imull	$1224107403, %eax, %edx
	cmpl	$641902, %edx
	jbe	.L4390
.L915:
	imull	$235226533, %eax, %edx
	cmpl	$640944, %edx
	jbe	.L4391
.L916:
	imull	$340880591, %eax, %edx
	cmpl	$640752, %edx
	jbe	.L4392
.L917:
	imull	$-1763055587, %eax, %edx
	cmpl	$640179, %edx
	jbe	.L4393
.L918:
	imull	$-194325057, %eax, %edx
	cmpl	$639227, %edx
	jbe	.L4394
.L919:
	imull	$-346378619, %eax, %edx
	cmpl	$637898, %edx
	jbe	.L4395
.L920:
	imull	$1945071281, %eax, %edx
	cmpl	$637519, %edx
	jbe	.L4396
.L921:
	imull	$-1041820199, %eax, %edx
	cmpl	$635256, %edx
	jbe	.L4397
.L922:
	imull	$-1461927357, %eax, %edx
	cmpl	$635068, %edx
	jbe	.L4398
.L923:
	imull	$2050864307, %eax, %edx
	cmpl	$633569, %edx
	jbe	.L4399
.L924:
	imull	$1356705493, %eax, %edx
	cmpl	$633382, %edx
	jbe	.L4400
.L925:
	imull	$-1214936265, %eax, %edx
	cmpl	$632449, %edx
	jbe	.L4401
.L926:
	imull	$1518697401, %eax, %edx
	cmpl	$632263, %edx
	jbe	.L4402
.L927:
	imull	$428675995, %eax, %edx
	cmpl	$631334, %edx
	jbe	.L4403
.L928:
	imull	$-985141993, %eax, %edx
	cmpl	$629483, %edx
	jbe	.L4404
.L929:
	imull	$1258229763, %eax, %edx
	cmpl	$629114, %edx
	jbe	.L4405
.L930:
	imull	$-296855259, %eax, %edx
	cmpl	$628930, %edx
	jbe	.L4406
.L931:
	imull	$1700261457, %eax, %edx
	cmpl	$628562, %edx
	jbe	.L4407
.L932:
	imull	$-1404449911, %eax, %edx
	cmpl	$627827, %edx
	jbe	.L4408
.L933:
	imull	$1552752505, %eax, %edx
	cmpl	$626362, %edx
	jbe	.L4409
.L934:
	imull	$1351134255, %eax, %edx
	cmpl	$625814, %edx
	jbe	.L4410
.L935:
	imull	$1336823421, %eax, %edx
	cmpl	$625268, %edx
	jbe	.L4411
.L936:
	imull	$2011527399, %eax, %edx
	cmpl	$625086, %edx
	jbe	.L4412
.L937:
	imull	$654572235, %eax, %edx
	cmpl	$623996, %edx
	jbe	.L4413
.L938:
	imull	$1855819323, %eax, %edx
	cmpl	$622549, %edx
	jbe	.L4414
.L939:
	imull	$1793974323, %eax, %edx
	cmpl	$621828, %edx
	jbe	.L4415
.L940:
	imull	$438756607, %eax, %edx
	cmpl	$621468, %edx
	jbe	.L4416
.L941:
	imull	$832666061, %eax, %edx
	cmpl	$620929, %edx
	jbe	.L4417
.L942:
	imull	$-558895989, %eax, %edx
	cmpl	$618247, %edx
	jbe	.L4418
.L943:
	imull	$1155172525, %eax, %edx
	cmpl	$618069, %edx
	jbe	.L4419
.L944:
	imull	$829492175, %eax, %edx
	cmpl	$617181, %edx
	jbe	.L4420
.L945:
	imull	$576282065, %eax, %edx
	cmpl	$617004, %edx
	jbe	.L4421
.L946:
	imull	$-135624057, %eax, %edx
	cmpl	$616472, %edx
	jbe	.L947
.L949:
	cmpl	$48594840, %eax
	jbe	.L225
	imull	$1010435571, %eax, %edx
	cmpl	$616119, %edx
	jbe	.L4422
.L950:
	imull	$-921537343, %eax, %edx
	cmpl	$615589, %edx
	jbe	.L4423
.L951:
	imull	$464985719, %eax, %edx
	cmpl	$615060, %edx
	jbe	.L4424
.L952:
	imull	$1060379567, %eax, %edx
	cmpl	$614356, %edx
	jbe	.L4425
.L953:
	imull	$1496517117, %eax, %edx
	cmpl	$613829, %edx
	jbe	.L4426
.L954:
	imull	$988314857, %eax, %edx
	cmpl	$613479, %edx
	jbe	.L4427
.L955:
	imull	$807181933, %eax, %edx
	cmpl	$612429, %edx
	jbe	.L4428
.L956:
	imull	$-753256125, %eax, %edx
	cmpl	$611905, %edx
	jbe	.L4429
.L957:
	imull	$1842184635, %eax, %edx
	cmpl	$611209, %edx
	jbe	.L4430
.L958:
	imull	$-1339317121, %eax, %edx
	cmpl	$610167, %edx
	jbe	.L4431
.L959:
	imull	$-928756949, %eax, %edx
	cmpl	$609820, %edx
	jbe	.L4432
.L960:
	imull	$-808843919, %eax, %edx
	cmpl	$608610, %edx
	jbe	.L4433
.L961:
	imull	$94782133, %eax, %edx
	cmpl	$607577, %edx
	jbe	.L4434
.L962:
	imull	$-1254695913, %eax, %edx
	cmpl	$606719, %edx
	jbe	.L4435
.L963:
	imull	$-2101226433, %eax, %edx
	cmpl	$604669, %edx
	jbe	.L4436
.L964:
	imull	$885697293, %eax, %edx
	cmpl	$604159, %edx
	jbe	.L4437
.L965:
	imull	$1754537265, %eax, %edx
	cmpl	$603141, %edx
	jbe	.L4438
.L966:
	imull	$897320935, %eax, %edx
	cmpl	$602633, %edx
	jbe	.L4439
.L967:
	imull	$1935717481, %eax, %edx
	cmpl	$602464, %edx
	jbe	.L4440
.L968:
	imull	$2041475855, %eax, %edx
	cmpl	$600610, %edx
	jbe	.L4441
.L969:
	imull	$832116167, %eax, %edx
	cmpl	$599939, %edx
	jbe	.L4442
.L970:
	imull	$-964677063, %eax, %edx
	cmpl	$598434, %edx
	jbe	.L4443
.L971:
	imull	$775687707, %eax, %edx
	cmpl	$597602, %edx
	jbe	.L4444
.L972:
	imull	$1061650473, %eax, %edx
	cmpl	$597103, %edx
	jbe	.L4445
.L973:
	imull	$-1942776937, %eax, %edx
	cmpl	$595943, %edx
	jbe	.L4446
.L974:
	imull	$-28589437, %eax, %edx
	cmpl	$595613, %edx
	jbe	.L4447
.L975:
	imull	$-960457819, %eax, %edx
	cmpl	$595448, %edx
	jbe	.L4448
.L976:
	imull	$313540347, %eax, %edx
	cmpl	$594953, %edx
	jbe	.L4449
.L977:
	imull	$-385590507, %eax, %edx
	cmpl	$594130, %edx
	jbe	.L4450
.L978:
	imull	$400594573, %eax, %edx
	cmpl	$593473, %edx
	jbe	.L4451
.L979:
	imull	$-506999453, %eax, %edx
	cmpl	$592981, %edx
	jbe	.L4452
.L980:
	imull	$-1612612945, %eax, %edx
	cmpl	$592654, %edx
	jbe	.L4453
.L981:
	imull	$-464256771, %eax, %edx
	cmpl	$592164, %edx
	jbe	.L4454
.L982:
	imull	$-745412421, %eax, %edx
	cmpl	$589725, %edx
	jbe	.L4455
.L983:
	imull	$-1509153919, %eax, %edx
	cmpl	$588593, %edx
	jbe	.L4456
.L984:
	imull	$938109731, %eax, %edx
	cmpl	$587788, %edx
	jbe	.L4457
.L985:
	imull	$-1648294331, %eax, %edx
	cmpl	$587627, %edx
	jbe	.L4458
.L986:
	imull	$2062710697, %eax, %edx
	cmpl	$586664, %edx
	jbe	.L4459
.L987:
	imull	$-964331765, %eax, %edx
	cmpl	$585863, %edx
	jbe	.L4460
.L988:
	imull	$-1168479443, %eax, %edx
	cmpl	$585703, %edx
	jbe	.L4461
.L989:
	imull	$-901189219, %eax, %edx
	cmpl	$584428, %edx
	jbe	.L4462
.L990:
	imull	$-1582202617, %eax, %edx
	cmpl	$584269, %edx
	jbe	.L4463
.L991:
	imull	$1478671737, %eax, %edx
	cmpl	$582842, %edx
	jbe	.L4464
.L992:
	imull	$1213605665, %eax, %edx
	cmpl	$580950, %edx
	jbe	.L4465
.L993:
	imull	$279338043, %eax, %edx
	cmpl	$579539, %edx
	jbe	.L4466
.L994:
	imull	$984999241, %eax, %edx
	cmpl	$579070, %edx
	jbe	.L4467
.L995:
	imull	$345538873, %eax, %edx
	cmpl	$577824, %edx
	jbe	.L4468
.L996:
	imull	$1838806291, %eax, %edx
	cmpl	$576428, %edx
	jbe	.L4469
.L997:
	imull	$1101244129, %eax, %edx
	cmpl	$575964, %edx
	jbe	.L4470
.L998:
	imull	$-1672152437, %eax, %edx
	cmpl	$575810, %edx
	jbe	.L4471
.L999:
	imull	$1637682461, %eax, %edx
	cmpl	$574423, %edx
	jbe	.L4472
.L1000:
	imull	$1890566409, %eax, %edx
	cmpl	$574116, %edx
	jbe	.L4473
.L1001:
	imull	$-898346305, %eax, %edx
	cmpl	$573656, %edx
	jbe	.L4474
.L1002:
	imull	$857961153, %eax, %edx
	cmpl	$573503, %edx
	jbe	.L4475
.L1003:
	imull	$-1941011357, %eax, %edx
	cmpl	$572738, %edx
	jbe	.L4476
.L1004:
	imull	$-2070532389, %eax, %edx
	cmpl	$572128, %edx
	jbe	.L4477
.L1005:
	imull	$336535285, %eax, %edx
	cmpl	$571367, %edx
	jbe	.L4478
.L1006:
	imull	$-685093813, %eax, %edx
	cmpl	$570911, %edx
	jbe	.L4479
.L1007:
	imull	$-1585298727, %eax, %edx
	cmpl	$570456, %edx
	jbe	.L4480
.L1008:
	imull	$-1987640431, %eax, %edx
	cmpl	$569851, %edx
	jbe	.L4481
.L1009:
	imull	$1807747805, %eax, %edx
	cmpl	$569548, %edx
	jbe	.L4482
.L1010:
	imull	$-1650378317, %eax, %edx
	cmpl	$569095, %edx
	jbe	.L4483
.L1011:
	imull	$1325073365, %eax, %edx
	cmpl	$568945, %edx
	jbe	.L4484
.L1012:
	imull	$1583552567, %eax, %edx
	cmpl	$568192, %edx
	jbe	.L4485
.L1013:
	imull	$-1126995783, %eax, %edx
	cmpl	$568042, %edx
	jbe	.L4486
.L1014:
	imull	$32327101, %eax, %edx
	cmpl	$567142, %edx
	jbe	.L4487
.L1015:
	imull	$-1021450583, %eax, %edx
	cmpl	$566842, %edx
	jbe	.L4488
.L1016:
	imull	$-1587036577, %eax, %edx
	cmpl	$566394, %edx
	jbe	.L4489
.L1017:
	imull	$-1280736723, %eax, %edx
	cmpl	$565946, %edx
	jbe	.L4490
.L1018:
	imull	$-465651177, %eax, %edx
	cmpl	$565797, %edx
	jbe	.L4491
.L1019:
	imull	$-576202373, %eax, %edx
	cmpl	$564904, %edx
	jbe	.L4492
.L1020:
	imull	$-1627762681, %eax, %edx
	cmpl	$564607, %edx
	jbe	.L4493
.L1021:
	imull	$-698263283, %eax, %edx
	cmpl	$563570, %edx
	jbe	.L4494
.L1022:
	imull	$-1938610713, %eax, %edx
	cmpl	$562242, %edx
	jbe	.L4495
.L1023:
	imull	$-1595369901, %eax, %edx
	cmpl	$561947, %edx
	jbe	.L4496
.L1024:
	imull	$-509286879, %eax, %edx
	cmpl	$561507, %edx
	jbe	.L4497
.L1025:
	imull	$385869405, %eax, %edx
	cmpl	$560042, %edx
	jbe	.L4498
.L1026:
	imull	$-761260983, %eax, %edx
	cmpl	$559750, %edx
	jbe	.L4499
.L1027:
	imull	$-1954291199, %eax, %edx
	cmpl	$559167, %edx
	jbe	.L4500
.L1028:
	imull	$-460394569, %eax, %edx
	cmpl	$558731, %edx
	jbe	.L4501
.L1029:
	imull	$1479867811, %eax, %edx
	cmpl	$558440, %edx
	jbe	.L4502
.L1030:
	imull	$1675254811, %eax, %edx
	cmpl	$557860, %edx
	jbe	.L4503
.L1031:
	imull	$1134098855, %eax, %edx
	cmpl	$557570, %edx
	jbe	.L4504
.L1032:
	imull	$-903295571, %eax, %edx
	cmpl	$556559, %edx
	jbe	.L4505
.L1033:
	imull	$1796845699, %eax, %edx
	cmpl	$556126, %edx
	jbe	.L4506
.L1034:
	imull	$-1778128689, %eax, %edx
	cmpl	$555838, %edx
	jbe	.L4507
.L1035:
	imull	$-170333931, %eax, %edx
	cmpl	$554833, %edx
	jbe	.L4508
.L1036:
	imull	$1930048505, %eax, %edx
	cmpl	$553974, %edx
	jbe	.L4509
.L1037:
	imull	$-1226421627, %eax, %edx
	cmpl	$553689, %edx
	jbe	.L4510
.L1038:
	imull	$-1718208337, %eax, %edx
	cmpl	$553546, %edx
	jbe	.L4511
.L1039:
	imull	$245930853, %eax, %edx
	cmpl	$551414, %edx
	jbe	.L4512
.L1040:
	imull	$-75505007, %eax, %edx
	cmpl	$551131, %edx
	jbe	.L4513
.L1041:
	imull	$-471418951, %eax, %edx
	cmpl	$549439, %edx
	jbe	.L4514
.L1042:
	imull	$1782661231, %eax, %edx
	cmpl	$549017, %edx
	jbe	.L4515
.L1043:
	imull	$-1968915267, %eax, %edx
	cmpl	$548597, %edx
	jbe	.L4516
.L1044:
	imull	$433276257, %eax, %edx
	cmpl	$547757, %edx
	jbe	.L4517
.L1045:
	imull	$-517933787, %eax, %edx
	cmpl	$546920, %edx
	jbe	.L4518
.L1046:
	imull	$-858229133, %eax, %edx
	cmpl	$545947, %edx
	jbe	.L4519
.L1047:
	imull	$547713345, %eax, %edx
	cmpl	$545531, %edx
	jbe	.L4520
.L1048:
	imull	$-1125404659, %eax, %edx
	cmpl	$545254, %edx
	jbe	.L4521
.L1049:
	imull	$-512408841, %eax, %edx
	cmpl	$545115, %edx
	jbe	.L4522
.L1050:
	imull	$-1365911837, %eax, %edx
	cmpl	$544839, %edx
	jbe	.L4523
.L1051:
	imull	$196782453, %eax, %edx
	cmpl	$543597, %edx
	jbe	.L4524
.L1052:
	imull	$1371543243, %eax, %edx
	cmpl	$543185, %edx
	jbe	.L4525
.L1053:
	imull	$1189400591, %eax, %edx
	cmpl	$542362, %edx
	jbe	.L4526
.L1054:
	imull	$287703751, %eax, %edx
	cmpl	$541814, %edx
	jbe	.L4527
.L1055:
	imull	$1992912469, %eax, %edx
	cmpl	$541405, %edx
	jbe	.L4528
.L1056:
	imull	$-1530863359, %eax, %edx
	cmpl	$541132, %edx
	jbe	.L4529
.L1057:
	imull	$2107230149, %eax, %edx
	cmpl	$540315, %edx
	jbe	.L4530
.L1058:
	imull	$-1361252369, %eax, %edx
	cmpl	$540179, %edx
	jbe	.L4531
.L1059:
	imull	$-2046352621, %eax, %edx
	cmpl	$539365, %edx
	jbe	.L4532
.L1060:
	imull	$-2031149303, %eax, %edx
	cmpl	$537341, %edx
	jbe	.L4533
.L1061:
	imull	$-343211271, %eax, %edx
	cmpl	$536267, %edx
	jbe	.L4534
.L1062:
	imull	$1488843363, %eax, %edx
	cmpl	$536133, %edx
	jbe	.L4535
.L1063:
	imull	$-1029142095, %eax, %edx
	cmpl	$535732, %edx
	jbe	.L4536
.L1064:
	imull	$307203159, %eax, %edx
	cmpl	$534266, %edx
	jbe	.L4537
.L1065:
	imull	$-36800291, %eax, %edx
	cmpl	$533337, %edx
	jbe	.L4538
.L1066:
	imull	$1642522547, %eax, %edx
	cmpl	$532940, %edx
	jbe	.L4539
.L1067:
	imull	$-894762675, %eax, %edx
	cmpl	$532279, %edx
	jbe	.L4540
.L1068:
	imull	$-26574479, %eax, %edx
	cmpl	$531489, %edx
	jbe	.L4541
.L1069:
	imull	$1044664359, %eax, %edx
	cmpl	$531095, %edx
	jbe	.L4542
.L1070:
	imull	$1640678569, %eax, %edx
	cmpl	$530963, %edx
	jbe	.L4543
.L1071:
	imull	$1596350133, %eax, %edx
	cmpl	$530701, %edx
	jbe	.L4544
.L1072:
	imull	$1543876653, %eax, %edx
	cmpl	$530177, %edx
	jbe	.L4545
.L1073:
	imull	$-2103797937, %eax, %edx
	cmpl	$529523, %edx
	jbe	.L4546
.L1074:
	imull	$-1438181731, %eax, %edx
	cmpl	$529132, %edx
	jbe	.L4547
.L1075:
	imull	$1150012787, %eax, %edx
	cmpl	$528741, %edx
	jbe	.L4548
.L1076:
	imull	$2130350171, %eax, %edx
	cmpl	$527183, %edx
	jbe	.L4549
.L1077:
	imull	$-2071436255, %eax, %edx
	cmpl	$526279, %edx
	jbe	.L4550
.L1078:
	imull	$-375487529, %eax, %edx
	cmpl	$525892, %edx
	jbe	.L4551
.L1079:
	imull	$-126152509, %eax, %edx
	cmpl	$525635, %edx
	jbe	.L4552
.L1080:
	imull	$-1298099909, %eax, %edx
	cmpl	$525121, %edx
	jbe	.L4553
.L1081:
	imull	$-67117057, %eax, %edx
	cmpl	$524352, %edx
	jbe	.L4554
.L1082:
	imull	$-1667968783, %eax, %edx
	cmpl	$523202, %edx
	jbe	.L4555
.L1083:
	imull	$-929121773, %eax, %edx
	cmpl	$522565, %edx
	jbe	.L4556
.L1084:
	imull	$2006164021, %eax, %edx
	cmpl	$522438, %edx
	jbe	.L4557
.L1085:
	imull	$1771523991, %eax, %edx
	cmpl	$521803, %edx
	jbe	.L4558
.L1086:
	imull	$1447132185, %eax, %edx
	cmpl	$521677, %edx
	jbe	.L4559
.L1087:
	imull	$-1326501979, %eax, %edx
	cmpl	$521423, %edx
	jbe	.L4560
.L1088:
	imull	$-1598563589, %eax, %edx
	cmpl	$521044, %edx
	jbe	.L4561
.L1089:
	imull	$1954384247, %eax, %edx
	cmpl	$519783, %edx
	jbe	.L4562
.L1090:
	imull	$612898949, %eax, %edx
	cmpl	$519405, %edx
	jbe	.L4563
.L1091:
	imull	$-87217999, %eax, %edx
	cmpl	$519154, %edx
	jbe	.L4564
.L1092:
	imull	$-2092287073, %eax, %edx
	cmpl	$518277, %edx
	jbe	.L4565
.L1093:
	imull	$1977311563, %eax, %edx
	cmpl	$518027, %edx
	jbe	.L4566
.L1094:
	imull	$-752512659, %eax, %edx
	cmpl	$517902, %edx
	jbe	.L4567
.L1095:
	imull	$943681497, %eax, %edx
	cmpl	$517653, %edx
	jbe	.L4568
.L1096:
	imull	$-1261979321, %eax, %edx
	cmpl	$516781, %edx
	jbe	.L4569
.L1097:
	imull	$-1899865899, %eax, %edx
	cmpl	$516408, %edx
	jbe	.L4570
.L1098:
	imull	$394483129, %eax, %edx
	cmpl	$515664, %edx
	jbe	.L4571
.L1099:
	imull	$-1686518943, %eax, %edx
	cmpl	$514182, %edx
	jbe	.L4572
.L1100:
	imull	$-661988861, %eax, %edx
	cmpl	$513567, %edx
	jbe	.L4573
.L1101:
	imull	$1861888081, %eax, %edx
	cmpl	$513199, %edx
	jbe	.L4574
.L1102:
	imull	$2037507465, %eax, %edx
	cmpl	$512709, %edx
	jbe	.L4575
.L1103:
	imull	$1388810219, %eax, %edx
	cmpl	$512098, %edx
	jbe	.L4576
.L1104:
	imull	$-1216455155, %eax, %edx
	cmpl	$511976, %edx
	jbe	.L4577
.L1105:
	imull	$411182283, %eax, %edx
	cmpl	$510151, %edx
	jbe	.L4578
.L1106:
	imull	$-1113132329, %eax, %edx
	cmpl	$509909, %edx
	jbe	.L4579
.L1107:
	imull	$309804261, %eax, %edx
	cmpl	$509546, %edx
	jbe	.L4580
.L1108:
	imull	$-1830875633, %eax, %edx
	cmpl	$509425, %edx
	jbe	.L4581
.L1109:
	imull	$-985863629, %eax, %edx
	cmpl	$508701, %edx
	jbe	.L4582
.L1110:
	imull	$-1698767105, %eax, %edx
	cmpl	$508460, %edx
	jbe	.L4583
.L1111:
	imull	$282236357, %eax, %edx
	cmpl	$507619, %edx
	jbe	.L4584
.L1112:
	imull	$-493563621, %eax, %edx
	cmpl	$507259, %edx
	jbe	.L4585
.L1113:
	imull	$236448029, %eax, %edx
	cmpl	$505230, %edx
	jbe	.L4586
.L1114:
	imull	$-1654821183, %eax, %edx
	cmpl	$504518, %edx
	jbe	.L4587
.L1115:
	imull	$-461201159, %eax, %edx
	cmpl	$504044, %edx
	jbe	.L4588
.L1116:
	imull	$-1022995025, %eax, %edx
	cmpl	$503690, %edx
	jbe	.L4589
.L1117:
	imull	$-1599858967, %eax, %edx
	cmpl	$503100, %edx
	jbe	.L4590
.L1118:
	imull	$-1700583725, %eax, %edx
	cmpl	$502982, %edx
	jbe	.L4591
.L1119:
	imull	$-92505441, %eax, %edx
	cmpl	$502746, %edx
	jbe	.L4592
.L1120:
	imull	$1363274683, %eax, %edx
	cmpl	$501572, %edx
	jbe	.L4593
.L1121:
	imull	$1930305493, %eax, %edx
	cmpl	$500987, %edx
	jbe	.L4594
.L1122:
	imull	$1285336909, %eax, %edx
	cmpl	$500520, %edx
	jbe	.L4595
.L1123:
	imull	$-1366875715, %eax, %edx
	cmpl	$499589, %edx
	jbe	.L4596
.L1124:
	imull	$-195793369, %eax, %edx
	cmpl	$499472, %edx
	jbe	.L4597
.L1125:
	imull	$1102053985, %eax, %edx
	cmpl	$498892, %edx
	jbe	.L4598
.L1126:
	imull	$834786639, %eax, %edx
	cmpl	$498082, %edx
	jbe	.L4599
.L1127:
	imull	$785610107, %eax, %edx
	cmpl	$497851, %edx
	jbe	.L1128
.L1130:
	cmpl	$74459640, %eax
	jbe	.L225
	imull	$1923253405, %eax, %edx
	cmpl	$497736, %edx
	jbe	.L4600
.L1131:
	imull	$2048323137, %eax, %edx
	cmpl	$497045, %edx
	jbe	.L4601
.L1132:
	imull	$1324699639, %eax, %edx
	cmpl	$496700, %edx
	jbe	.L4602
.L1133:
	imull	$25780711, %eax, %edx
	cmpl	$495782, %edx
	jbe	.L4603
.L1134:
	imull	$-10404235, %eax, %edx
	cmpl	$495439, %edx
	jbe	.L4604
.L1135:
	imull	$44053485, %eax, %edx
	cmpl	$494982, %edx
	jbe	.L4605
.L1136:
	imull	$-1179990439, %eax, %edx
	cmpl	$494754, %edx
	jbe	.L4606
.L1137:
	imull	$-1955942639, %eax, %edx
	cmpl	$494299, %edx
	jbe	.L4607
.L1138:
	imull	$307806813, %eax, %edx
	cmpl	$494071, %edx
	jbe	.L4608
.L1139:
	imull	$2132918579, %eax, %edx
	cmpl	$493731, %edx
	jbe	.L4609
.L1140:
	imull	$663951531, %eax, %edx
	cmpl	$493277, %edx
	jbe	.L4610
.L1141:
	imull	$593497145, %eax, %edx
	cmpl	$492937, %edx
	jbe	.L4611
.L1142:
	imull	$2126548207, %eax, %edx
	cmpl	$492598, %edx
	jbe	.L4612
.L1143:
	imull	$-1131419629, %eax, %edx
	cmpl	$491921, %edx
	jbe	.L4613
.L1144:
	imull	$193192417, %eax, %edx
	cmpl	$491583, %edx
	jbe	.L4614
.L1145:
	imull	$1465723309, %eax, %edx
	cmpl	$491358, %edx
	jbe	.L4615
.L1146:
	imull	$-616723325, %eax, %edx
	cmpl	$491021, %edx
	jbe	.L4616
.L1147:
	imull	$-1134954799, %eax, %edx
	cmpl	$490685, %edx
	jbe	.L4617
.L1148:
	imull	$-955962359, %eax, %edx
	cmpl	$490237, %edx
	jbe	.L4618
.L1149:
	imull	$-1143335069, %eax, %edx
	cmpl	$489231, %edx
	jbe	.L4619
.L1150:
	imull	$-966282065, %eax, %edx
	cmpl	$489009, %edx
	jbe	.L4620
.L1151:
	imull	$1104113483, %eax, %edx
	cmpl	$487898, %edx
	jbe	.L4621
.L1152:
	imull	$637393239, %eax, %edx
	cmpl	$487676, %edx
	jbe	.L4622
.L1153:
	imull	$-97889605, %eax, %edx
	cmpl	$487012, %edx
	jbe	.L4623
.L1154:
	imull	$-156295715, %eax, %edx
	cmpl	$486902, %edx
	jbe	.L4624
.L1155:
	imull	$-2084987521, %eax, %edx
	cmpl	$486351, %edx
	jbe	.L4625
.L1156:
	imull	$-443251123, %eax, %edx
	cmpl	$486020, %edx
	jbe	.L4626
.L1157:
	imull	$-1691942089, %eax, %edx
	cmpl	$485910, %edx
	jbe	.L4627
.L1158:
	imull	$-267919759, %eax, %edx
	cmpl	$485361, %edx
	jbe	.L4628
.L1159:
	imull	$-782797899, %eax, %edx
	cmpl	$484704, %edx
	jbe	.L4629
.L1160:
	imull	$-827688609, %eax, %edx
	cmpl	$484595, %edx
	jbe	.L4630
.L1161:
	imull	$106078475, %eax, %edx
	cmpl	$484376, %edx
	jbe	.L4631
.L1162:
	imull	$1637374727, %eax, %edx
	cmpl	$483286, %edx
	jbe	.L4632
.L1163:
	imull	$-713332587, %eax, %edx
	cmpl	$482960, %edx
	jbe	.L4633
.L1164:
	imull	$698419539, %eax, %edx
	cmpl	$481336, %edx
	jbe	.L4634
.L1165:
	imull	$-1215520479, %eax, %edx
	cmpl	$481013, %edx
	jbe	.L4635
.L1166:
	imull	$176933613, %eax, %edx
	cmpl	$480797, %edx
	jbe	.L4636
.L1167:
	imull	$245467877, %eax, %edx
	cmpl	$480367, %edx
	jbe	.L4637
.L1168:
	imull	$-1145356601, %eax, %edx
	cmpl	$479831, %edx
	jbe	.L4638
.L1169:
	imull	$136568747, %eax, %edx
	cmpl	$479188, %edx
	jbe	.L4639
.L1170:
	imull	$610556729, %eax, %edx
	cmpl	$478868, %edx
	jbe	.L4640
.L1171:
	imull	$483070115, %eax, %edx
	cmpl	$478761, %edx
	jbe	.L4641
.L1172:
	imull	$-1019929449, %eax, %edx
	cmpl	$477271, %edx
	jbe	.L4642
.L1173:
	imull	$98773273, %eax, %edx
	cmpl	$477165, %edx
	jbe	.L4643
.L1174:
	imull	$27657167, %eax, %edx
	cmpl	$476847, %edx
	jbe	.L4644
.L1175:
	imull	$-1560506373, %eax, %edx
	cmpl	$476636, %edx
	jbe	.L4645
.L1176:
	imull	$1469142813, %eax, %edx
	cmpl	$476530, %edx
	jbe	.L4646
.L1177:
	imull	$706869133, %eax, %edx
	cmpl	$475685, %edx
	jbe	.L4647
.L1178:
	imull	$-2012805711, %eax, %edx
	cmpl	$475054, %edx
	jbe	.L4648
.L1179:
	imull	$-1058662181, %eax, %edx
	cmpl	$474949, %edx
	jbe	.L4649
.L1180:
	imull	$80213225, %eax, %edx
	cmpl	$474634, %edx
	jbe	.L4650
.L1181:
	imull	$-1180535221, %eax, %edx
	cmpl	$474110, %edx
	jbe	.L4651
.L1182:
	imull	$-224530109, %eax, %edx
	cmpl	$473692, %edx
	jbe	.L4652
.L1183:
	imull	$1536852779, %eax, %edx
	cmpl	$472441, %edx
	jbe	.L4653
.L1184:
	imull	$914856815, %eax, %edx
	cmpl	$471818, %edx
	jbe	.L4654
.L1185:
	imull	$-1836052547, %eax, %edx
	cmpl	$471508, %edx
	jbe	.L4655
.L1186:
	imull	$983979031, %eax, %edx
	cmpl	$470578, %edx
	jbe	.L4656
.L1187:
	imull	$-1233045467, %eax, %edx
	cmpl	$470269, %edx
	jbe	.L4657
.L1188:
	imull	$523650385, %eax, %edx
	cmpl	$470063, %edx
	jbe	.L4658
.L1189:
	imull	$-12202945, %eax, %edx
	cmpl	$469344, %edx
	jbe	.L4659
.L1190:
	imull	$655713037, %eax, %edx
	cmpl	$469036, %edx
	jbe	.L4660
.L1191:
	imull	$684025465, %eax, %edx
	cmpl	$468831, %edx
	jbe	.L4661
.L1192:
	imull	$502398333, %eax, %edx
	cmpl	$468218, %edx
	jbe	.L4662
.L1193:
	imull	$315772021, %eax, %edx
	cmpl	$467810, %edx
	jbe	.L4663
.L1194:
	imull	$-916309557, %eax, %edx
	cmpl	$467504, %edx
	jbe	.L4664
.L1195:
	imull	$832006927, %eax, %edx
	cmpl	$466895, %edx
	jbe	.L4665
.L1196:
	imull	$-1220399813, %eax, %edx
	cmpl	$466692, %edx
	jbe	.L4666
.L1197:
	imull	$-147378615, %eax, %edx
	cmpl	$466388, %edx
	jbe	.L4667
.L1198:
	imull	$438765773, %eax, %edx
	cmpl	$465781, %edx
	jbe	.L4668
.L1199:
	imull	$2046707619, %eax, %edx
	cmpl	$465478, %edx
	jbe	.L4669
.L1200:
	imull	$2106807207, %eax, %edx
	cmpl	$464873, %edx
	jbe	.L4670
.L1201:
	imull	$1431500841, %eax, %edx
	cmpl	$464773, %edx
	jbe	.L4671
.L1202:
	imull	$-1108887527, %eax, %edx
	cmpl	$463969, %edx
	jbe	.L4672
.L1203:
	imull	$-1262054635, %eax, %edx
	cmpl	$462969, %edx
	jbe	.L4673
.L1204:
	imull	$-211948607, %eax, %edx
	cmpl	$462769, %edx
	jbe	.L4674
.L1205:
	imull	$644499563, %eax, %edx
	cmpl	$462670, %edx
	jbe	.L4675
.L1206:
	imull	$528725125, %eax, %edx
	cmpl	$462172, %edx
	jbe	.L4676
.L1207:
	imull	$1988573087, %eax, %edx
	cmpl	$461278, %edx
	jbe	.L4677
.L1208:
	imull	$1172485975, %eax, %edx
	cmpl	$460882, %edx
	jbe	.L4678
.L1209:
	imull	$-1774098365, %eax, %edx
	cmpl	$460685, %edx
	jbe	.L4679
.L1210:
	imull	$995427785, %eax, %edx
	cmpl	$459994, %edx
	jbe	.L4680
.L1211:
	imull	$2030925013, %eax, %edx
	cmpl	$459797, %edx
	jbe	.L4681
.L1212:
	imull	$-139748481, %eax, %edx
	cmpl	$459698, %edx
	jbe	.L4682
.L1213:
	imull	$-914213811, %eax, %edx
	cmpl	$459403, %edx
	jbe	.L4683
.L1214:
	imull	$-783736429, %eax, %edx
	cmpl	$458325, %edx
	jbe	.L4684
.L1215:
	imull	$-2116108447, %eax, %edx
	cmpl	$458032, %edx
	jbe	.L4685
.L1216:
	imull	$327004751, %eax, %edx
	cmpl	$457349, %edx
	jbe	.L4686
.L1217:
	imull	$-206132835, %eax, %edx
	cmpl	$457057, %edx
	jbe	.L4687
.L1218:
	imull	$-1198096269, %eax, %edx
	cmpl	$456765, %edx
	jbe	.L4688
.L1219:
	imull	$983284237, %eax, %edx
	cmpl	$456280, %edx
	jbe	.L4689
.L1220:
	imull	$-1894637341, %eax, %edx
	cmpl	$455989, %edx
	jbe	.L4690
.L1221:
	imull	$-1791203323, %eax, %edx
	cmpl	$455892, %edx
	jbe	.L4691
.L1222:
	imull	$178065127, %eax, %edx
	cmpl	$455409, %edx
	jbe	.L4692
.L1223:
	imull	$-608298135, %eax, %edx
	cmpl	$455312, %edx
	jbe	.L4693
.L1224:
	imull	$1282528117, %eax, %edx
	cmpl	$455119, %edx
	jbe	.L4694
.L1225:
	imull	$-1052469473, %eax, %edx
	cmpl	$455023, %edx
	jbe	.L4695
.L1226:
	imull	$-1606129827, %eax, %edx
	cmpl	$453965, %edx
	jbe	.L4696
.L1227:
	imull	$-602284857, %eax, %edx
	cmpl	$453869, %edx
	jbe	.L4697
.L1228:
	imull	$584336947, %eax, %edx
	cmpl	$453677, %edx
	jbe	.L4698
.L1229:
	imull	$676911873, %eax, %edx
	cmpl	$453390, %edx
	jbe	.L4699
.L1230:
	imull	$-1026279241, %eax, %edx
	cmpl	$453103, %edx
	jbe	.L4700
.L1231:
	imull	$207711515, %eax, %edx
	cmpl	$452530, %edx
	jbe	.L4701
.L1232:
	imull	$-703240407, %eax, %edx
	cmpl	$452244, %edx
	jbe	.L4702
.L1233:
	imull	$-1064371561, %eax, %edx
	cmpl	$451578, %edx
	jbe	.L4703
.L1234:
	imull	$-212921391, %eax, %edx
	cmpl	$451104, %edx
	jbe	.L4704
.L1235:
	imull	$-606873067, %eax, %edx
	cmpl	$450536, %edx
	jbe	.L4705
.L1236:
	imull	$643862379, %eax, %edx
	cmpl	$450253, %edx
	jbe	.L4706
.L1237:
	imull	$-920896413, %eax, %edx
	cmpl	$449876, %edx
	jbe	.L4707
.L1238:
	imull	$1564463535, %eax, %edx
	cmpl	$449687, %edx
	jbe	.L4708
.L1239:
	imull	$34047931, %eax, %edx
	cmpl	$447999, %edx
	jbe	.L4709
.L1240:
	imull	$387848833, %eax, %edx
	cmpl	$447345, %edx
	jbe	.L4710
.L1241:
	imull	$-2125814459, %eax, %edx
	cmpl	$446787, %edx
	jbe	.L4711
.L1242:
	imull	$574210203, %eax, %edx
	cmpl	$446508, %edx
	jbe	.L4712
.L1243:
	imull	$-644044249, %eax, %edx
	cmpl	$446323, %edx
	jbe	.L4713
.L1244:
	imull	$477268149, %eax, %edx
	cmpl	$446044, %edx
	jbe	.L4714
.L1245:
	imull	$1340978783, %eax, %edx
	cmpl	$445952, %edx
	jbe	.L4715
.L1246:
	imull	$-1566462717, %eax, %edx
	cmpl	$445397, %edx
	jbe	.L4716
.L1247:
	imull	$1634927441, %eax, %edx
	cmpl	$445120, %edx
	jbe	.L4717
.L1248:
	imull	$-212058731, %eax, %edx
	cmpl	$444567, %edx
	jbe	.L4718
.L1249:
	imull	$11095813, %eax, %edx
	cmpl	$443832, %edx
	jbe	.L4719
.L1250:
	imull	$990429487, %eax, %edx
	cmpl	$443740, %edx
	jbe	.L4720
.L1251:
	imull	$-93975959, %eax, %edx
	cmpl	$443282, %edx
	jbe	.L4721
.L1252:
	imull	$1063444001, %eax, %edx
	cmpl	$442917, %edx
	jbe	.L4722
.L1253:
	imull	$-905040953, %eax, %edx
	cmpl	$441914, %edx
	jbe	.L4723
.L1254:
	imull	$-587625399, %eax, %edx
	cmpl	$441823, %edx
	jbe	.L4724
.L1255:
	imull	$1049802445, %eax, %edx
	cmpl	$441278, %edx
	jbe	.L4725
.L1256:
	imull	$977712547, %eax, %edx
	cmpl	$441007, %edx
	jbe	.L4726
.L1257:
	imull	$580126959, %eax, %edx
	cmpl	$440825, %edx
	jbe	.L4727
.L1258:
	imull	$1926986045, %eax, %edx
	cmpl	$440554, %edx
	jbe	.L4728
.L1259:
	imull	$659614103, %eax, %edx
	cmpl	$439742, %edx
	jbe	.L4729
.L1260:
	imull	$1176950297, %eax, %edx
	cmpl	$439652, %edx
	jbe	.L4730
.L1261:
	imull	$-19760099, %eax, %edx
	cmpl	$439113, %edx
	jbe	.L4731
.L1262:
	imull	$1668924147, %eax, %edx
	cmpl	$438844, %edx
	jbe	.L4732
.L1263:
	imull	$1059375551, %eax, %edx
	cmpl	$438664, %edx
	jbe	.L4733
.L1264:
	imull	$868807523, %eax, %edx
	cmpl	$438127, %edx
	jbe	.L4734
.L1265:
	imull	$1119817179, %eax, %edx
	cmpl	$437770, %edx
	jbe	.L4735
.L1266:
	imull	$-2079014423, %eax, %edx
	cmpl	$437503, %edx
	jbe	.L4736
.L1267:
	imull	$816257901, %eax, %edx
	cmpl	$436968, %edx
	jbe	.L4737
.L1268:
	imull	$52414937, %eax, %edx
	cmpl	$436791, %edx
	jbe	.L4738
.L1269:
	imull	$-1346242417, %eax, %edx
	cmpl	$436524, %edx
	jbe	.L4739
.L1270:
	imull	$1341114547, %eax, %edx
	cmpl	$435993, %edx
	jbe	.L4740
.L1271:
	imull	$724179329, %eax, %edx
	cmpl	$435727, %edx
	jbe	.L4741
.L1272:
	imull	$1370085419, %eax, %edx
	cmpl	$435639, %edx
	jbe	.L4742
.L1273:
	imull	$1350580335, %eax, %edx
	cmpl	$435109, %edx
	jbe	.L4743
.L1274:
	imull	$469782419, %eax, %edx
	cmpl	$434581, %edx
	jbe	.L4744
.L1275:
	imull	$-1261079201, %eax, %edx
	cmpl	$434405, %edx
	jbe	.L4745
.L1276:
	imull	$430320933, %eax, %edx
	cmpl	$433791, %edx
	jbe	.L4746
.L1277:
	imull	$1943074939, %eax, %edx
	cmpl	$433528, %edx
	jbe	.L4747
.L1278:
	imull	$371800555, %eax, %edx
	cmpl	$432829, %edx
	jbe	.L4748
.L1279:
	imull	$-1656302727, %eax, %edx
	cmpl	$432567, %edx
	jbe	.L4749
.L1280:
	imull	$720080611, %eax, %edx
	cmpl	$432480, %edx
	jbe	.L4750
.L1281:
	imull	$-476978563, %eax, %edx
	cmpl	$432045, %edx
	jbe	.L4751
.L1282:
	imull	$1635705205, %eax, %edx
	cmpl	$431698, %edx
	jbe	.L4752
.L1283:
	imull	$261998607, %eax, %edx
	cmpl	$430918, %edx
	jbe	.L4753
.L1284:
	imull	$1550374237, %eax, %edx
	cmpl	$430659, %edx
	jbe	.L4754
.L1285:
	imull	$-1352826713, %eax, %edx
	cmpl	$429196, %edx
	jbe	.L4755
.L1286:
	imull	$2129675561, %eax, %edx
	cmpl	$429110, %edx
	jbe	.L4756
.L1287:
	imull	$-520342755, %eax, %edx
	cmpl	$427913, %edx
	jbe	.L4757
.L1288:
	imull	$452214407, %eax, %edx
	cmpl	$427828, %edx
	jbe	.L4758
.L1289:
	imull	$-1434359419, %eax, %edx
	cmpl	$426892, %edx
	jbe	.L4759
.L1290:
	imull	$-1679248165, %eax, %edx
	cmpl	$426638, %edx
	jbe	.L4760
.L1291:
	imull	$349347325, %eax, %edx
	cmpl	$426553, %edx
	jbe	.L4761
.L1292:
	imull	$373290143, %eax, %edx
	cmpl	$426130, %edx
	jbe	.L4762
.L1293:
	imull	$-1687171773, %eax, %edx
	cmpl	$425623, %edx
	jbe	.L4763
.L1294:
	imull	$691075685, %eax, %edx
	cmpl	$425539, %edx
	jbe	.L4764
.L1295:
	imull	$1804490171, %eax, %edx
	cmpl	$425286, %edx
	jbe	.L4765
.L1296:
	imull	$-816651705, %eax, %edx
	cmpl	$425118, %edx
	jbe	.L4766
.L1297:
	imull	$738695295, %eax, %edx
	cmpl	$424781, %edx
	jbe	.L4767
.L1298:
	imull	$-2045121603, %eax, %edx
	cmpl	$423859, %edx
	jbe	.L4768
.L1299:
	imull	$-63117677, %eax, %edx
	cmpl	$423608, %edx
	jbe	.L4769
.L1300:
	imull	$1996920501, %eax, %edx
	cmpl	$423525, %edx
	jbe	.L4770
.L1301:
	imull	$-424800233, %eax, %edx
	cmpl	$423107, %edx
	jbe	.L4771
.L1302:
	imull	$1812434767, %eax, %edx
	cmpl	$422774, %edx
	jbe	.L4772
.L1303:
	imull	$21553019, %eax, %edx
	cmpl	$422608, %edx
	jbe	.L4773
.L1304:
	imull	$1002679945, %eax, %edx
	cmpl	$422358, %edx
	jbe	.L4774
.L1305:
	imull	$1873799233, %eax, %edx
	cmpl	$422026, %edx
	jbe	.L4775
.L1306:
	imull	$-1406484723, %eax, %edx
	cmpl	$421861, %edx
	jbe	.L4776
.L1307:
	imull	$1216057649, %eax, %edx
	cmpl	$421364, %edx
	jbe	.L4777
.L1308:
	imull	$813061579, %eax, %edx
	cmpl	$420621, %edx
	jbe	.L1309
.L1311:
	cmpl	$104509728, %eax
	jbe	.L225
	imull	$-161749233, %eax, %edx
	cmpl	$420127, %edx
	jbe	.L4778
.L1312:
	imull	$322028203, %eax, %edx
	cmpl	$419307, %edx
	jbe	.L4779
.L1313:
	imull	$-725957193, %eax, %edx
	cmpl	$419143, %edx
	jbe	.L4780
.L1314:
	imull	$-1466145083, %eax, %edx
	cmpl	$418898, %edx
	jbe	.L4781
.L1315:
	imull	$442098203, %eax, %edx
	cmpl	$418653, %edx
	jbe	.L4782
.L1316:
	imull	$1584624147, %eax, %edx
	cmpl	$418327, %edx
	jbe	.L4783
.L1317:
	imull	$-1916447777, %eax, %edx
	cmpl	$418164, %edx
	jbe	.L4784
.L1318:
	imull	$-1166451743, %eax, %edx
	cmpl	$418083, %edx
	jbe	.L4785
.L1319:
	imull	$-566873903, %eax, %edx
	cmpl	$417432, %edx
	jbe	.L4786
.L1320:
	imull	$-753422571, %eax, %edx
	cmpl	$416946, %edx
	jbe	.L4787
.L1321:
	imull	$-2128099393, %eax, %edx
	cmpl	$416865, %edx
	jbe	.L4788
.L1322:
	imull	$-377730567, %eax, %edx
	cmpl	$416461, %edx
	jbe	.L4789
.L1323:
	imull	$-1329979215, %eax, %edx
	cmpl	$416138, %edx
	jbe	.L4790
.L1324:
	imull	$-1988048941, %eax, %edx
	cmpl	$415735, %edx
	jbe	.L4791
.L1325:
	imull	$-1455625227, %eax, %edx
	cmpl	$415655, %edx
	jbe	.L4792
.L1326:
	imull	$1015053217, %eax, %edx
	cmpl	$415494, %edx
	jbe	.L4793
.L1327:
	imull	$1951691607, %eax, %edx
	cmpl	$415253, %edx
	jbe	.L4794
.L1328:
	imull	$780036061, %eax, %edx
	cmpl	$414692, %edx
	jbe	.L4795
.L1329:
	imull	$-1740105855, %eax, %edx
	cmpl	$414212, %edx
	jbe	.L4796
.L1330:
	imull	$1922422567, %eax, %edx
	cmpl	$413335, %edx
	jbe	.L4797
.L1331:
	imull	$-1319177377, %eax, %edx
	cmpl	$413017, %edx
	jbe	.L4798
.L1332:
	imull	$-361243533, %eax, %edx
	cmpl	$411908, %edx
	jbe	.L4799
.L1333:
	imull	$224858773, %eax, %edx
	cmpl	$411829, %edx
	jbe	.L4800
.L1334:
	imull	$-1013946559, %eax, %edx
	cmpl	$411671, %edx
	jbe	.L4801
.L1335:
	imull	$-213659523, %eax, %edx
	cmpl	$410883, %edx
	jbe	.L4802
.L1336:
	imull	$503961449, %eax, %edx
	cmpl	$410726, %edx
	jbe	.L4803
.L1337:
	imull	$663196499, %eax, %edx
	cmpl	$410647, %edx
	jbe	.L4804
.L1338:
	imull	$1625133855, %eax, %edx
	cmpl	$410490, %edx
	jbe	.L4805
.L1339:
	imull	$-2003798811, %eax, %edx
	cmpl	$409942, %edx
	jbe	.L4806
.L1340:
	imull	$-1023469369, %eax, %edx
	cmpl	$409551, %edx
	jbe	.L4807
.L1341:
	imull	$-962164309, %eax, %edx
	cmpl	$409083, %edx
	jbe	.L4808
.L1342:
	imull	$-55624755, %eax, %edx
	cmpl	$409005, %edx
	jbe	.L4809
.L1343:
	imull	$639363057, %eax, %edx
	cmpl	$408538, %edx
	jbe	.L4810
.L1344:
	imull	$761174753, %eax, %edx
	cmpl	$407917, %edx
	jbe	.L4811
.L1345:
	imull	$-1280618869, %eax, %edx
	cmpl	$407840, %edx
	jbe	.L4812
.L1346:
	imull	$-1696184641, %eax, %edx
	cmpl	$406758, %edx
	jbe	.L4813
.L1347:
	imull	$102019191, %eax, %edx
	cmpl	$406450, %edx
	jbe	.L4814
.L1348:
	imull	$-1018072331, %eax, %edx
	cmpl	$405606, %edx
	jbe	.L4815
.L1349:
	imull	$-864100243, %eax, %edx
	cmpl	$405300, %edx
	jbe	.L4816
.L1350:
	imull	$1933768409, %eax, %edx
	cmpl	$405147, %edx
	jbe	.L4817
.L1351:
	imull	$919164303, %eax, %edx
	cmpl	$404918, %edx
	jbe	.L4818
.L1352:
	imull	$-26304803, %eax, %edx
	cmpl	$404689, %edx
	jbe	.L4819
.L1353:
	imull	$772746539, %eax, %edx
	cmpl	$404156, %edx
	jbe	.L4820
.L1354:
	imull	$-1140503497, %eax, %edx
	cmpl	$404004, %edx
	jbe	.L4821
.L1355:
	imull	$-603531921, %eax, %edx
	cmpl	$403700, %edx
	jbe	.L4822
.L1356:
	imull	$880284819, %eax, %edx
	cmpl	$403245, %edx
	jbe	.L4823
.L1357:
	imull	$-592840095, %eax, %edx
	cmpl	$403018, %edx
	jbe	.L4824
.L1358:
	imull	$-821694953, %eax, %edx
	cmpl	$402791, %edx
	jbe	.L4825
.L1359:
	imull	$-2011592445, %eax, %edx
	cmpl	$402640, %edx
	jbe	.L4826
.L1360:
	imull	$324322879, %eax, %edx
	cmpl	$401887, %edx
	jbe	.L4827
.L1361:
	imull	$-1306849557, %eax, %edx
	cmpl	$401736, %edx
	jbe	.L4828
.L1362:
	imull	$642500477, %eax, %edx
	cmpl	$401061, %edx
	jbe	.L4829
.L1363:
	imull	$-933897753, %eax, %edx
	cmpl	$400986, %edx
	jbe	.L4830
.L1364:
	imull	$-1855691829, %eax, %edx
	cmpl	$400537, %edx
	jbe	.L4831
.L1365:
	imull	$-1651294631, %eax, %edx
	cmpl	$400313, %edx
	jbe	.L4832
.L1366:
	imull	$-782722075, %eax, %edx
	cmpl	$400164, %edx
	jbe	.L4833
.L1367:
	imull	$1374197563, %eax, %edx
	cmpl	$399941, %edx
	jbe	.L4834
.L1368:
	imull	$-1629235711, %eax, %edx
	cmpl	$399420, %edx
	jbe	.L4835
.L1369:
	imull	$-1433915365, %eax, %edx
	cmpl	$398752, %edx
	jbe	.L4836
.L1370:
	imull	$-546183115, %eax, %edx
	cmpl	$398383, %edx
	jbe	.L4837
.L1371:
	imull	$-1650073171, %eax, %edx
	cmpl	$398087, %edx
	jbe	.L4838
.L1372:
	imull	$-1369744177, %eax, %edx
	cmpl	$397718, %edx
	jbe	.L4839
.L1373:
	imull	$-978670417, %eax, %edx
	cmpl	$396543, %edx
	jbe	.L4840
.L1374:
	imull	$-973372675, %eax, %edx
	cmpl	$396324, %edx
	jbe	.L4841
.L1375:
	imull	$933671327, %eax, %edx
	cmpl	$395959, %edx
	jbe	.L4842
.L1376:
	imull	$323319661, %eax, %edx
	cmpl	$395740, %edx
	jbe	.L4843
.L1377:
	imull	$1778659907, %eax, %edx
	cmpl	$395521, %edx
	jbe	.L4844
.L1378:
	imull	$-1921880219, %eax, %edx
	cmpl	$395448, %edx
	jbe	.L4845
.L1379:
	imull	$-1471837509, %eax, %edx
	cmpl	$395230, %edx
	jbe	.L4846
.L1380:
	imull	$-1065552853, %eax, %edx
	cmpl	$394649, %edx
	jbe	.L4847
.L1381:
	imull	$-288724039, %eax, %edx
	cmpl	$394431, %edx
	jbe	.L4848
.L1382:
	imull	$-1640534749, %eax, %edx
	cmpl	$394359, %edx
	jbe	.L4849
.L1383:
	imull	$1818359079, %eax, %edx
	cmpl	$393925, %edx
	jbe	.L4850
.L1384:
	imull	$1135061941, %eax, %edx
	cmpl	$393708, %edx
	jbe	.L4851
.L1385:
	imull	$-1135297655, %eax, %edx
	cmpl	$392700, %edx
	jbe	.L4852
.L1386:
	imull	$-2039707021, %eax, %edx
	cmpl	$392628, %edx
	jbe	.L4853
.L1387:
	imull	$-1842101235, %eax, %edx
	cmpl	$392270, %edx
	jbe	.L4854
.L1388:
	imull	$-2039492091, %eax, %edx
	cmpl	$391983, %edx
	jbe	.L4855
.L1389:
	imull	$-355402379, %eax, %edx
	cmpl	$391412, %edx
	jbe	.L4856
.L1390:
	imull	$1748265675, %eax, %edx
	cmpl	$391198, %edx
	jbe	.L4857
.L1391:
	imull	$-335794749, %eax, %edx
	cmpl	$390913, %edx
	jbe	.L4858
.L1392:
	imull	$330532369, %eax, %edx
	cmpl	$390700, %edx
	jbe	.L4859
.L1393:
	imull	$558583859, %eax, %edx
	cmpl	$390345, %edx
	jbe	.L4860
.L1394:
	imull	$1548244763, %eax, %edx
	cmpl	$389495, %edx
	jbe	.L4861
.L1395:
	imull	$1240241303, %eax, %edx
	cmpl	$388790, %edx
	jbe	.L4862
.L1396:
	imull	$1527729617, %eax, %edx
	cmpl	$388438, %edx
	jbe	.L4863
.L1397:
	imull	$1891354619, %eax, %edx
	cmpl	$388368, %edx
	jbe	.L4864
.L1398:
	imull	$1871021077, %eax, %edx
	cmpl	$388017, %edx
	jbe	.L4865
.L1399:
	imull	$-1579334465, %eax, %edx
	cmpl	$387947, %edx
	jbe	.L4866
.L1400:
	imull	$-636320157, %eax, %edx
	cmpl	$387527, %edx
	jbe	.L4867
.L1401:
	imull	$-400946257, %eax, %edx
	cmpl	$387387, %edx
	jbe	.L4868
.L1402:
	imull	$569539069, %eax, %edx
	cmpl	$387178, %edx
	jbe	.L4869
.L1403:
	imull	$1289688281, %eax, %edx
	cmpl	$386481, %edx
	jbe	.L4870
.L1404:
	imull	$760321637, %eax, %edx
	cmpl	$386342, %edx
	jbe	.L4871
.L1405:
	imull	$-654732401, %eax, %edx
	cmpl	$386272, %edx
	jbe	.L4872
.L1406:
	imull	$-608109645, %eax, %edx
	cmpl	$385856, %edx
	jbe	.L4873
.L1407:
	imull	$1438846789, %eax, %edx
	cmpl	$385233, %edx
	jbe	.L4874
.L1408:
	imull	$275579943, %eax, %edx
	cmpl	$384888, %edx
	jbe	.L4875
.L1409:
	imull	$-750782295, %eax, %edx
	cmpl	$384819, %edx
	jbe	.L4876
.L1410:
	imull	$-1410637813, %eax, %edx
	cmpl	$384474, %edx
	jbe	.L4877
.L1411:
	imull	$-688470995, %eax, %edx
	cmpl	$384405, %edx
	jbe	.L4878
.L1412:
	imull	$682076313, %eax, %edx
	cmpl	$384268, %edx
	jbe	.L4879
.L1413:
	imull	$563865493, %eax, %edx
	cmpl	$383581, %edx
	jbe	.L4880
.L1414:
	imull	$-105334523, %eax, %edx
	cmpl	$383034, %edx
	jbe	.L4881
.L1415:
	imull	$77576151, %eax, %edx
	cmpl	$382148, %edx
	jbe	.L4882
.L1416:
	imull	$-399203133, %eax, %edx
	cmpl	$382012, %edx
	jbe	.L4883
.L1417:
	imull	$-1180342981, %eax, %edx
	cmpl	$381740, %edx
	jbe	.L4884
.L1418:
	imull	$2062591561, %eax, %edx
	cmpl	$381537, %edx
	jbe	.L4885
.L1419:
	imull	$1228114261, %eax, %edx
	cmpl	$381401, %edx
	jbe	.L4886
.L1420:
	imull	$-1972035015, %eax, %edx
	cmpl	$380995, %edx
	jbe	.L4887
.L1421:
	imull	$-187350289, %eax, %edx
	cmpl	$380793, %edx
	jbe	.L4888
.L1422:
	imull	$228314023, %eax, %edx
	cmpl	$380523, %edx
	jbe	.L4889
.L1423:
	imull	$1643635595, %eax, %edx
	cmpl	$380119, %edx
	jbe	.L4890
.L1424:
	imull	$-1254581553, %eax, %edx
	cmpl	$379715, %edx
	jbe	.L4891
.L1425:
	imull	$1541588509, %eax, %edx
	cmpl	$379514, %edx
	jbe	.L4892
.L1426:
	imull	$1221984777, %eax, %edx
	cmpl	$379380, %edx
	jbe	.L4893
.L1427:
	imull	$341959617, %eax, %edx
	cmpl	$379112, %edx
	jbe	.L4894
.L1428:
	imull	$-1339457689, %eax, %edx
	cmpl	$378377, %edx
	jbe	.L4895
.L1429:
	imull	$-1640735767, %eax, %edx
	cmpl	$378311, %edx
	jbe	.L4896
.L1430:
	imull	$310911961, %eax, %edx
	cmpl	$377778, %edx
	jbe	.L4897
.L1431:
	imull	$-580686521, %eax, %edx
	cmpl	$377314, %edx
	jbe	.L4898
.L1432:
	imull	$-560196735, %eax, %edx
	cmpl	$376982, %edx
	jbe	.L4899
.L1433:
	imull	$1510529335, %eax, %edx
	cmpl	$376784, %edx
	jbe	.L4900
.L1434:
	imull	$941347227, %eax, %edx
	cmpl	$376388, %edx
	jbe	.L4901
.L1435:
	imull	$-849744033, %eax, %edx
	cmpl	$375992, %edx
	jbe	.L4902
.L1436:
	imull	$-2071062747, %eax, %edx
	cmpl	$375532, %edx
	jbe	.L4903
.L1437:
	imull	$-1728421253, %eax, %edx
	cmpl	$375335, %edx
	jbe	.L4904
.L1438:
	imull	$-1748078329, %eax, %edx
	cmpl	$375204, %edx
	jbe	.L4905
.L1439:
	imull	$1367857379, %eax, %edx
	cmpl	$374550, %edx
	jbe	.L4906
.L1440:
	imull	$1880709679, %eax, %edx
	cmpl	$374419, %edx
	jbe	.L4907
.L1441:
	imull	$1183051603, %eax, %edx
	cmpl	$374028, %edx
	jbe	.L4908
.L1442:
	imull	$942806817, %eax, %edx
	cmpl	$373832, %edx
	jbe	.L4909
.L1443:
	imull	$-1534691125, %eax, %edx
	cmpl	$373767, %edx
	jbe	.L4910
.L1444:
	imull	$1827892057, %eax, %edx
	cmpl	$373572, %edx
	jbe	.L4911
.L1445:
	imull	$26509839, %eax, %edx
	cmpl	$373378, %edx
	jbe	.L4912
.L1446:
	imull	$51827455, %eax, %edx
	cmpl	$372859, %edx
	jbe	.L4913
.L1447:
	imull	$1476243639, %eax, %edx
	cmpl	$372600, %edx
	jbe	.L4914
.L1448:
	imull	$-1609171659, %eax, %edx
	cmpl	$371890, %edx
	jbe	.L4915
.L1449:
	imull	$92212959, %eax, %edx
	cmpl	$371826, %edx
	jbe	.L4916
.L1450:
	imull	$-1433263117, %eax, %edx
	cmpl	$370927, %edx
	jbe	.L4917
.L1451:
	imull	$-177551509, %eax, %edx
	cmpl	$370671, %edx
	jbe	.L4918
.L1452:
	imull	$-1053272839, %eax, %edx
	cmpl	$370479, %edx
	jbe	.L4919
.L1453:
	imull	$-472198267, %eax, %edx
	cmpl	$370351, %edx
	jbe	.L4920
.L1454:
	imull	$-17746271, %eax, %edx
	cmpl	$369713, %edx
	jbe	.L4921
.L1455:
	imull	$-1944765331, %eax, %edx
	cmpl	$369586, %edx
	jbe	.L4922
.L1456:
	imull	$-1895500911, %eax, %edx
	cmpl	$369205, %edx
	jbe	.L4923
.L1457:
	imull	$-663201607, %eax, %edx
	cmpl	$368445, %edx
	jbe	.L4924
.L1458:
	imull	$959627445, %eax, %edx
	cmpl	$367814, %edx
	jbe	.L4925
.L1459:
	imull	$-2141784479, %eax, %edx
	cmpl	$367688, %edx
	jbe	.L4926
.L1460:
	imull	$1282721433, %eax, %edx
	cmpl	$367436, %edx
	jbe	.L4927
.L1461:
	imull	$613828987, %eax, %edx
	cmpl	$367122, %edx
	jbe	.L4928
.L1462:
	imull	$-703653731, %eax, %edx
	cmpl	$367059, %edx
	jbe	.L4929
.L1463:
	imull	$716622093, %eax, %edx
	cmpl	$366558, %edx
	jbe	.L4930
.L1464:
	imull	$-262044681, %eax, %edx
	cmpl	$366496, %edx
	jbe	.L4931
.L1465:
	imull	$-591285669, %eax, %edx
	cmpl	$366121, %edx
	jbe	.L4932
.L1466:
	imull	$890228255, %eax, %edx
	cmpl	$365747, %edx
	jbe	.L4933
.L1467:
	imull	$-800861695, %eax, %edx
	cmpl	$364691, %edx
	jbe	.L4934
.L1468:
	imull	$-1809290069, %eax, %edx
	cmpl	$364629, %edx
	jbe	.L4935
.L1469:
	imull	$-1740513353, %eax, %edx
	cmpl	$364505, %edx
	jbe	.L4936
.L1470:
	imull	$-1178939195, %eax, %edx
	cmpl	$364319, %edx
	jbe	.L4937
.L1471:
	imull	$-185250263, %eax, %edx
	cmpl	$363949, %edx
	jbe	.L4938
.L1472:
	imull	$1173867999, %eax, %edx
	cmpl	$363764, %edx
	jbe	.L4939
.L1473:
	imull	$1455046061, %eax, %edx
	cmpl	$363579, %edx
	jbe	.L4940
.L1474:
	imull	$-1474408027, %eax, %edx
	cmpl	$363333, %edx
	jbe	.L4941
.L1475:
	imull	$449215739, %eax, %edx
	cmpl	$363149, %edx
	jbe	.L4942
.L1476:
	imull	$-512956537, %eax, %edx
	cmpl	$363026, %edx
	jbe	.L4943
.L1477:
	imull	$-1007591415, %eax, %edx
	cmpl	$362965, %edx
	jbe	.L4944
.L1478:
	imull	$-486489665, %eax, %edx
	cmpl	$362781, %edx
	jbe	.L4945
.L1479:
	imull	$1129225575, %eax, %edx
	cmpl	$362047, %edx
	jbe	.L4946
.L1480:
	imull	$-1463987757, %eax, %edx
	cmpl	$361925, %edx
	jbe	.L4947
.L1481:
	imull	$-1065160561, %eax, %edx
	cmpl	$361316, %edx
	jbe	.L4948
.L1482:
	imull	$-362095671, %eax, %edx
	cmpl	$361012, %edx
	jbe	.L4949
.L1483:
	imull	$653103487, %eax, %edx
	cmpl	$360830, %edx
	jbe	.L4950
.L1484:
	imull	$-1929471411, %eax, %edx
	cmpl	$360648, %edx
	jbe	.L4951
.L1485:
	imull	$1153441691, %eax, %edx
	cmpl	$360225, %edx
	jbe	.L4952
.L1486:
	imull	$1361195303, %eax, %edx
	cmpl	$360104, %edx
	jbe	.L4953
.L1487:
	imull	$-12597323, %eax, %edx
	cmpl	$359923, %edx
	jbe	.L4954
.L1488:
	imull	$552924427, %eax, %edx
	cmpl	$359742, %edx
	jbe	.L4955
.L1489:
	imull	$-1463547603, %eax, %edx
	cmpl	$359682, %edx
	jbe	.L1490
.L1492:
	cmpl	$142874208, %eax
	jbe	.L225
	imull	$1068980817, %eax, %edx
	cmpl	$359321, %edx
	jbe	.L4956
.L1493:
	imull	$-892465401, %eax, %edx
	cmpl	$359141, %edx
	jbe	.L4957
.L1494:
	imull	$-1703059135, %eax, %edx
	cmpl	$358840, %edx
	jbe	.L4958
.L1495:
	imull	$-2030341653, %eax, %edx
	cmpl	$358780, %edx
	jbe	.L4959
.L1496:
	imull	$628059653, %eax, %edx
	cmpl	$358481, %edx
	jbe	.L4960
.L1497:
	imull	$-1732748965, %eax, %edx
	cmpl	$358302, %edx
	jbe	.L4961
.L1498:
	imull	$-1252326185, %eax, %edx
	cmpl	$357705, %edx
	jbe	.L4962
.L1499:
	imull	$-1994257981, %eax, %edx
	cmpl	$357586, %edx
	jbe	.L4963
.L1500:
	imull	$567690701, %eax, %edx
	cmpl	$356813, %edx
	jbe	.L4964
.L1501:
	imull	$1821642553, %eax, %edx
	cmpl	$356695, %edx
	jbe	.L4965
.L1502:
	imull	$412984483, %eax, %edx
	cmpl	$356635, %edx
	jbe	.L4966
.L1503:
	imull	$1922736625, %eax, %edx
	cmpl	$356458, %edx
	jbe	.L4967
.L1504:
	imull	$-1097314153, %eax, %edx
	cmpl	$355808, %edx
	jbe	.L4968
.L1505:
	imull	$-1765941991, %eax, %edx
	cmpl	$355749, %edx
	jbe	.L4969
.L1506:
	imull	$153379009, %eax, %edx
	cmpl	$355044, %edx
	jbe	.L4970
.L1507:
	imull	$1564871565, %eax, %edx
	cmpl	$354926, %edx
	jbe	.L4971
.L1508:
	imull	$-1097244061, %eax, %edx
	cmpl	$354750, %edx
	jbe	.L4972
.L1509:
	imull	$-1496800891, %eax, %edx
	cmpl	$354692, %edx
	jbe	.L4973
.L1510:
	imull	$-454919759, %eax, %edx
	cmpl	$354575, %edx
	jbe	.L4974
.L1511:
	imull	$1782983783, %eax, %edx
	cmpl	$354399, %edx
	jbe	.L4975
.L1512:
	imull	$633474959, %eax, %edx
	cmpl	$353699, %edx
	jbe	.L4976
.L1513:
	imull	$-1008604963, %eax, %edx
	cmpl	$353524, %edx
	jbe	.L4977
.L1514:
	imull	$1620902357, %eax, %edx
	cmpl	$353291, %edx
	jbe	.L4978
.L1515:
	imull	$1961889921, %eax, %edx
	cmpl	$353175, %edx
	jbe	.L4979
.L1516:
	imull	$-1847863509, %eax, %edx
	cmpl	$353117, %edx
	jbe	.L4980
.L1517:
	imull	$1384587309, %eax, %edx
	cmpl	$352133, %edx
	jbe	.L4981
.L1518:
	imull	$-492743933, %eax, %edx
	cmpl	$351959, %edx
	jbe	.L4982
.L1519:
	imull	$1172313979, %eax, %edx
	cmpl	$351729, %edx
	jbe	.L4983
.L1520:
	imull	$1417722091, %eax, %edx
	cmpl	$351269, %edx
	jbe	.L4984
.L1521:
	imull	$1004697391, %eax, %edx
	cmpl	$350924, %edx
	jbe	.L4985
.L1522:
	imull	$2019592497, %eax, %edx
	cmpl	$350867, %edx
	jbe	.L4986
.L1523:
	imull	$875050067, %eax, %edx
	cmpl	$350580, %edx
	jbe	.L4987
.L1524:
	imull	$1241555061, %eax, %edx
	cmpl	$350523, %edx
	jbe	.L4988
.L1525:
	imull	$347435991, %eax, %edx
	cmpl	$350237, %edx
	jbe	.L4989
.L1526:
	imull	$-1093958171, %eax, %edx
	cmpl	$350066, %edx
	jbe	.L4990
.L1527:
	imull	$-1090796451, %eax, %edx
	cmpl	$349838, %edx
	jbe	.L4991
.L1528:
	imull	$-914529719, %eax, %edx
	cmpl	$349724, %edx
	jbe	.L4992
.L1529:
	imull	$150982657, %eax, %edx
	cmpl	$349496, %edx
	jbe	.L4993
.L1530:
	imull	$-1958764859, %eax, %edx
	cmpl	$349155, %edx
	jbe	.L4994
.L1531:
	imull	$-168689781, %eax, %edx
	cmpl	$348532, %edx
	jbe	.L4995
.L1532:
	imull	$-1147507687, %eax, %edx
	cmpl	$348362, %edx
	jbe	.L4996
.L1533:
	imull	$-17398393, %eax, %edx
	cmpl	$347967, %edx
	jbe	.L4997
.L1534:
	imull	$357247219, %eax, %edx
	cmpl	$347855, %edx
	jbe	.L4998
.L1535:
	imull	$-157594371, %eax, %edx
	cmpl	$347124, %edx
	jbe	.L4999
.L1536:
	imull	$131864553, %eax, %edx
	cmpl	$347011, %edx
	jbe	.L5000
.L1537:
	imull	$-1098809389, %eax, %edx
	cmpl	$346955, %edx
	jbe	.L5001
.L1538:
	imull	$1272441687, %eax, %edx
	cmpl	$346619, %edx
	jbe	.L5002
.L1539:
	imull	$1366659217, %eax, %edx
	cmpl	$346340, %edx
	jbe	.L5003
.L1540:
	imull	$-1077462583, %eax, %edx
	cmpl	$346117, %edx
	jbe	.L5004
.L1541:
	imull	$-1985034027, %eax, %edx
	cmpl	$346005, %edx
	jbe	.L5005
.L1542:
	imull	$1088178253, %eax, %edx
	cmpl	$345782, %edx
	jbe	.L5006
.L1543:
	imull	$-141979535, %eax, %edx
	cmpl	$345448, %edx
	jbe	.L5007
.L1544:
	imull	$1392057021, %eax, %edx
	cmpl	$345337, %edx
	jbe	.L5008
.L1545:
	imull	$1034158859, %eax, %edx
	cmpl	$344949, %edx
	jbe	.L5009
.L1546:
	imull	$53441433, %eax, %edx
	cmpl	$344783, %edx
	jbe	.L5010
.L1547:
	imull	$-868428407, %eax, %edx
	cmpl	$344341, %edx
	jbe	.L5011
.L1548:
	imull	$1414217535, %eax, %edx
	cmpl	$344175, %edx
	jbe	.L5012
.L1549:
	imull	$-375942921, %eax, %edx
	cmpl	$343955, %edx
	jbe	.L5013
.L1550:
	imull	$-1512917789, %eax, %edx
	cmpl	$343844, %edx
	jbe	.L5014
.L1551:
	imull	$-126474191, %eax, %edx
	cmpl	$343679, %edx
	jbe	.L5015
.L1552:
	imull	$-728251673, %eax, %edx
	cmpl	$343514, %edx
	jbe	.L5016
.L1553:
	imull	$598706975, %eax, %edx
	cmpl	$343295, %edx
	jbe	.L5017
.L1554:
	imull	$384306413, %eax, %edx
	cmpl	$343130, %edx
	jbe	.L5018
.L1555:
	imull	$1200684559, %eax, %edx
	cmpl	$342856, %edx
	jbe	.L5019
.L1556:
	imull	$1541036595, %eax, %edx
	cmpl	$342528, %edx
	jbe	.L5020
.L1557:
	imull	$971598933, %eax, %edx
	cmpl	$342474, %edx
	jbe	.L5021
.L1558:
	imull	$665108907, %eax, %edx
	cmpl	$342310, %edx
	jbe	.L5022
.L1559:
	imull	$-2034062023, %eax, %edx
	cmpl	$342146, %edx
	jbe	.L5023
.L1560:
	imull	$-974218455, %eax, %edx
	cmpl	$341711, %edx
	jbe	.L5024
.L1561:
	imull	$-640642335, %eax, %edx
	cmpl	$341493, %edx
	jbe	.L5025
.L1562:
	imull	$1027747479, %eax, %edx
	cmpl	$341330, %edx
	jbe	.L5026
.L1563:
	imull	$1424377509, %eax, %edx
	cmpl	$341168, %edx
	jbe	.L5027
.L1564:
	imull	$407989513, %eax, %edx
	cmpl	$340843, %edx
	jbe	.L5028
.L1565:
	imull	$-864033941, %eax, %edx
	cmpl	$340573, %edx
	jbe	.L5029
.L1566:
	imull	$-826099315, %eax, %edx
	cmpl	$340519, %edx
	jbe	.L5030
.L1567:
	imull	$2074136675, %eax, %edx
	cmpl	$340357, %edx
	jbe	.L5031
.L1568:
	imull	$1839049461, %eax, %edx
	cmpl	$339872, %edx
	jbe	.L5032
.L1569:
	imull	$-1816382815, %eax, %edx
	cmpl	$339764, %edx
	jbe	.L5033
.L1570:
	imull	$222779991, %eax, %edx
	cmpl	$339603, %edx
	jbe	.L5034
.L1571:
	imull	$944668773, %eax, %edx
	cmpl	$339442, %edx
	jbe	.L5035
.L1572:
	imull	$-1499964485, %eax, %edx
	cmpl	$339281, %edx
	jbe	.L5036
.L1573:
	imull	$520982143, %eax, %edx
	cmpl	$338960, %edx
	jbe	.L5037
.L1574:
	imull	$2039000945, %eax, %edx
	cmpl	$338479, %edx
	jbe	.L5038
.L1575:
	imull	$-905538903, %eax, %edx
	cmpl	$338266, %edx
	jbe	.L5039
.L1576:
	imull	$-1027167649, %eax, %edx
	cmpl	$338106, %edx
	jbe	.L5040
.L1577:
	imull	$-1327037799, %eax, %edx
	cmpl	$337840, %edx
	jbe	.L5041
.L1578:
	imull	$-1660455087, %eax, %edx
	cmpl	$337628, %edx
	jbe	.L5042
.L1579:
	imull	$1652377323, %eax, %edx
	cmpl	$337151, %edx
	jbe	.L5043
.L1580:
	imull	$1878015991, %eax, %edx
	cmpl	$337045, %edx
	jbe	.L5044
.L1581:
	imull	$854818685, %eax, %edx
	cmpl	$336675, %edx
	jbe	.L5045
.L1582:
	imull	$1051615827, %eax, %edx
	cmpl	$336517, %edx
	jbe	.L5046
.L1583:
	imull	$-1614687259, %eax, %edx
	cmpl	$336043, %edx
	jbe	.L5047
.L1584:
	imull	$1501945799, %eax, %edx
	cmpl	$335780, %edx
	jbe	.L5048
.L1585:
	imull	$-1371812353, %eax, %edx
	cmpl	$335570, %edx
	jbe	.L5049
.L1586:
	imull	$907344953, %eax, %edx
	cmpl	$335308, %edx
	jbe	.L5050
.L1587:
	imull	$-1224405699, %eax, %edx
	cmpl	$334994, %edx
	jbe	.L5051
.L1588:
	imull	$-1683085913, %eax, %edx
	cmpl	$334942, %edx
	jbe	.L5052
.L1589:
	imull	$-237363147, %eax, %edx
	cmpl	$334785, %edx
	jbe	.L5053
.L1590:
	imull	$1166641689, %eax, %edx
	cmpl	$334472, %edx
	jbe	.L5054
.L1591:
	imull	$341512221, %eax, %edx
	cmpl	$334160, %edx
	jbe	.L5055
.L1592:
	imull	$-94636567, %eax, %edx
	cmpl	$333227, %edx
	jbe	.L5056
.L1593:
	imull	$68956661, %eax, %edx
	cmpl	$333123, %edx
	jbe	.L5057
.L1594:
	imull	$1926225739, %eax, %edx
	cmpl	$332969, %edx
	jbe	.L5058
.L1595:
	imull	$-287839677, %eax, %edx
	cmpl	$332762, %edx
	jbe	.L5059
.L1596:
	imull	$1236495503, %eax, %edx
	cmpl	$332659, %edx
	jbe	.L5060
.L1597:
	imull	$1587711453, %eax, %edx
	cmpl	$332505, %edx
	jbe	.L5061
.L1598:
	imull	$2137343815, %eax, %edx
	cmpl	$332453, %edx
	jbe	.L5062
.L1599:
	imull	$1174527155, %eax, %edx
	cmpl	$332350, %edx
	jbe	.L5063
.L1600:
	imull	$810803269, %eax, %edx
	cmpl	$331888, %edx
	jbe	.L5064
.L1601:
	imull	$1955332521, %eax, %edx
	cmpl	$331580, %edx
	jbe	.L5065
.L1602:
	imull	$2123786591, %eax, %edx
	cmpl	$331427, %edx
	jbe	.L5066
.L1603:
	imull	$1858491671, %eax, %edx
	cmpl	$331222, %edx
	jbe	.L5067
.L1604:
	imull	$-1113718491, %eax, %edx
	cmpl	$331069, %edx
	jbe	.L5068
.L1605:
	imull	$1459342459, %eax, %edx
	cmpl	$330916, %edx
	jbe	.L5069
.L1606:
	imull	$-655013113, %eax, %edx
	cmpl	$330814, %edx
	jbe	.L5070
.L1607:
	imull	$740329337, %eax, %edx
	cmpl	$330356, %edx
	jbe	.L5071
.L1608:
	imull	$-2068045085, %eax, %edx
	cmpl	$330305, %edx
	jbe	.L5072
.L1609:
	imull	$-440822737, %eax, %edx
	cmpl	$330204, %edx
	jbe	.L5073
.L1610:
	imull	$134702641, %eax, %edx
	cmpl	$330153, %edx
	jbe	.L5074
.L1611:
	imull	$-535181991, %eax, %edx
	cmpl	$329545, %edx
	jbe	.L5075
.L1612:
	imull	$-795608347, %eax, %edx
	cmpl	$329444, %edx
	jbe	.L5076
.L1613:
	imull	$-1321781701, %eax, %edx
	cmpl	$329292, %edx
	jbe	.L5077
.L1614:
	imull	$1593044809, %eax, %edx
	cmpl	$329141, %edx
	jbe	.L5078
.L1615:
	imull	$229165751, %eax, %edx
	cmpl	$328788, %edx
	jbe	.L5079
.L1616:
	imull	$-442191699, %eax, %edx
	cmpl	$328035, %edx
	jbe	.L5080
.L1617:
	imull	$-738397309, %eax, %edx
	cmpl	$327885, %edx
	jbe	.L5081
.L1618:
	imull	$1217393615, %eax, %edx
	cmpl	$327785, %edx
	jbe	.L5082
.L1619:
	imull	$-1325611235, %eax, %edx
	cmpl	$327635, %edx
	jbe	.L5083
.L1620:
	imull	$-2014421823, %eax, %edx
	cmpl	$327335, %edx
	jbe	.L5084
.L1621:
	imull	$1625785975, %eax, %edx
	cmpl	$327185, %edx
	jbe	.L5085
.L1622:
	imull	$-2066955053, %eax, %edx
	cmpl	$326688, %edx
	jbe	.L5086
.L1623:
	imull	$1374611615, %eax, %edx
	cmpl	$326588, %edx
	jbe	.L5087
.L1624:
	imull	$-1479526313, %eax, %edx
	cmpl	$326390, %edx
	jbe	.L5088
.L1625:
	imull	$-98213565, %eax, %edx
	cmpl	$326290, %edx
	jbe	.L5089
.L1626:
	imull	$78588347, %eax, %edx
	cmpl	$326092, %edx
	jbe	.L5090
.L1627:
	imull	$-834091319, %eax, %edx
	cmpl	$325944, %edx
	jbe	.L5091
.L1628:
	imull	$1455656063, %eax, %edx
	cmpl	$325795, %edx
	jbe	.L5092
.L1629:
	imull	$-569969877, %eax, %edx
	cmpl	$325697, %edx
	jbe	.L5093
.L1630:
	imull	$160854113, %eax, %edx
	cmpl	$324957, %edx
	jbe	.L5094
.L1631:
	imull	$648517643, %eax, %edx
	cmpl	$324908, %edx
	jbe	.L5095
.L1632:
	imull	$-265574363, %eax, %edx
	cmpl	$324663, %edx
	jbe	.L5096
.L1633:
	imull	$-1751915895, %eax, %edx
	cmpl	$324368, %edx
	jbe	.L5097
.L1634:
	imull	$-1380328383, %eax, %edx
	cmpl	$324172, %edx
	jbe	.L5098
.L1635:
	imull	$476174819, %eax, %edx
	cmpl	$323928, %edx
	jbe	.L5099
.L1636:
	imull	$-73163685, %eax, %edx
	cmpl	$323733, %edx
	jbe	.L5100
.L1637:
	imull	$-342860605, %eax, %edx
	cmpl	$323148, %edx
	jbe	.L5101
.L1638:
	imull	$-1526833903, %eax, %edx
	cmpl	$323002, %edx
	jbe	.L5102
.L1639:
	imull	$1942077781, %eax, %edx
	cmpl	$322711, %edx
	jbe	.L5103
.L1640:
	imull	$-896545791, %eax, %edx
	cmpl	$322614, %edx
	jbe	.L5104
.L1641:
	imull	$-1212400913, %eax, %edx
	cmpl	$322275, %edx
	jbe	.L5105
.L1642:
	imull	$1171764763, %eax, %edx
	cmpl	$322178, %edx
	jbe	.L5106
.L1643:
	imull	$1458169897, %eax, %edx
	cmpl	$322033, %edx
	jbe	.L5107
.L1644:
	imull	$1031964179, %eax, %edx
	cmpl	$321985, %edx
	jbe	.L5108
.L1645:
	imull	$-164511353, %eax, %edx
	cmpl	$321311, %edx
	jbe	.L5109
.L1646:
	imull	$1647885965, %eax, %edx
	cmpl	$320975, %edx
	jbe	.L5110
.L1647:
	imull	$-1876743939, %eax, %edx
	cmpl	$320591, %edx
	jbe	.L5111
.L1648:
	imull	$-485623961, %eax, %edx
	cmpl	$320543, %edx
	jbe	.L5112
.L1649:
	imull	$1662774603, %eax, %edx
	cmpl	$320257, %edx
	jbe	.L5113
.L1650:
	imull	$2086181849, %eax, %edx
	cmpl	$320113, %edx
	jbe	.L5114
.L1651:
	imull	$-144968347, %eax, %edx
	cmpl	$320018, %edx
	jbe	.L5115
.L1652:
	imull	$-610006143, %eax, %edx
	cmpl	$319542, %edx
	jbe	.L5116
.L1653:
	imull	$-1777888477, %eax, %edx
	cmpl	$319304, %edx
	jbe	.L5117
.L1654:
	imull	$928124017, %eax, %edx
	cmpl	$319162, %edx
	jbe	.L5118
.L1655:
	imull	$858164007, %eax, %edx
	cmpl	$319020, %edx
	jbe	.L5119
.L1656:
	imull	$61862325, %eax, %edx
	cmpl	$318877, %edx
	jbe	.L5120
.L1657:
	imull	$-1576234195, %eax, %edx
	cmpl	$318688, %edx
	jbe	.L5121
.L1658:
	imull	$-2093505969, %eax, %edx
	cmpl	$318452, %edx
	jbe	.L5122
.L1659:
	imull	$811331699, %eax, %edx
	cmpl	$318169, %edx
	jbe	.L5123
.L1660:
	imull	$1997940089, %eax, %edx
	cmpl	$317839, %edx
	jbe	.L5124
.L1661:
	imull	$-583122085, %eax, %edx
	cmpl	$317604, %edx
	jbe	.L5125
.L1662:
	imull	$-1193275615, %eax, %edx
	cmpl	$317276, %edx
	jbe	.L5126
.L1663:
	imull	$-590070767, %eax, %edx
	cmpl	$316901, %edx
	jbe	.L5127
.L1664:
	imull	$1745275647, %eax, %edx
	cmpl	$316574, %edx
	jbe	.L5128
.L1665:
	imull	$-2064127687, %eax, %edx
	cmpl	$316341, %edx
	jbe	.L5129
.L1666:
	imull	$1233408679, %eax, %edx
	cmpl	$316015, %edx
	jbe	.L5130
.L1667:
	imull	$-1527892683, %eax, %edx
	cmpl	$315876, %edx
	jbe	.L5131
.L1668:
	imull	$1893029, %eax, %edx
	cmpl	$315504, %edx
	jbe	.L5132
.L1669:
	imull	$302435835, %eax, %edx
	cmpl	$315365, %edx
	jbe	.L5133
.L1670:
	imull	$-1030956045, %eax, %edx
	cmpl	$315180, %edx
	jbe	.L1671
.L1673:
	cmpl	$185858688, %eax
	jbe	.L225
	imull	$-1436591423, %eax, %edx
	cmpl	$315041, %edx
	jbe	.L5134
.L1674:
	imull	$-2105789519, %eax, %edx
	cmpl	$314672, %edx
	jbe	.L5135
.L1675:
	imull	$253883501, %eax, %edx
	cmpl	$314212, %edx
	jbe	.L5136
.L1676:
	imull	$1576192399, %eax, %edx
	cmpl	$313982, %edx
	jbe	.L5137
.L1677:
	imull	$-695997551, %eax, %edx
	cmpl	$313936, %edx
	jbe	.L5138
.L1678:
	imull	$1020474439, %eax, %edx
	cmpl	$313799, %edx
	jbe	.L5139
.L1679:
	imull	$-241868365, %eax, %edx
	cmpl	$313707, %edx
	jbe	.L5140
.L1680:
	imull	$-741495851, %eax, %edx
	cmpl	$313661, %edx
	jbe	.L5141
.L1681:
	imull	$-254932351, %eax, %edx
	cmpl	$313569, %edx
	jbe	.L5142
.L1682:
	imull	$1577129285, %eax, %edx
	cmpl	$313295, %edx
	jbe	.L5143
.L1683:
	imull	$-777172625, %eax, %edx
	cmpl	$313249, %edx
	jbe	.L5144
.L1684:
	imull	$-1865920855, %eax, %edx
	cmpl	$313021, %edx
	jbe	.L5145
.L1685:
	imull	$1192437907, %eax, %edx
	cmpl	$312975, %edx
	jbe	.L5146
.L1686:
	imull	$-200216991, %eax, %edx
	cmpl	$312839, %edx
	jbe	.L5147
.L1687:
	imull	$431339527, %eax, %edx
	cmpl	$312338, %edx
	jbe	.L5148
.L1688:
	imull	$449883541, %eax, %edx
	cmpl	$312202, %edx
	jbe	.L5149
.L1689:
	imull	$2090515007, %eax, %edx
	cmpl	$312156, %edx
	jbe	.L5150
.L1690:
	imull	$574513899, %eax, %edx
	cmpl	$312066, %edx
	jbe	.L5151
.L1691:
	imull	$-331916419, %eax, %edx
	cmpl	$311658, %edx
	jbe	.L5152
.L1692:
	imull	$-837563787, %eax, %edx
	cmpl	$311477, %edx
	jbe	.L5153
.L1693:
	imull	$-1418064425, %eax, %edx
	cmpl	$311252, %edx
	jbe	.L5154
.L1694:
	imull	$1968150799, %eax, %edx
	cmpl	$311071, %edx
	jbe	.L5155
.L1695:
	imull	$1368401613, %eax, %edx
	cmpl	$310576, %edx
	jbe	.L5156
.L1696:
	imull	$1062950839, %eax, %edx
	cmpl	$310531, %edx
	jbe	.L5157
.L1697:
	imull	$-663127311, %eax, %edx
	cmpl	$310307, %edx
	jbe	.L5158
.L1698:
	imull	$165489035, %eax, %edx
	cmpl	$309904, %edx
	jbe	.L5159
.L1699:
	imull	$-165322031, %eax, %edx
	cmpl	$309591, %edx
	jbe	.L5160
.L1700:
	imull	$1109257245, %eax, %edx
	cmpl	$309502, %edx
	jbe	.L5161
.L1701:
	imull	$1877172103, %eax, %edx
	cmpl	$309457, %edx
	jbe	.L5162
.L1702:
	imull	$458175219, %eax, %edx
	cmpl	$309368, %edx
	jbe	.L5163
.L1703:
	imull	$1951134341, %eax, %edx
	cmpl	$308968, %edx
	jbe	.L5164
.L1704:
	imull	$1654595759, %eax, %edx
	cmpl	$308923, %edx
	jbe	.L5165
.L1705:
	imull	$-970359333, %eax, %edx
	cmpl	$308834, %edx
	jbe	.L5166
.L1706:
	imull	$1790161385, %eax, %edx
	cmpl	$308701, %edx
	jbe	.L5167
.L1707:
	imull	$1330048417, %eax, %edx
	cmpl	$308524, %edx
	jbe	.L5168
.L1708:
	imull	$1515308611, %eax, %edx
	cmpl	$308302, %edx
	jbe	.L5169
.L1709:
	imull	$1557939045, %eax, %edx
	cmpl	$308258, %edx
	jbe	.L5170
.L1710:
	imull	$-1182400221, %eax, %edx
	cmpl	$307596, %edx
	jbe	.L5171
.L1711:
	imull	$-1820448657, %eax, %edx
	cmpl	$307508, %edx
	jbe	.L5172
.L1712:
	imull	$-701457115, %eax, %edx
	cmpl	$306849, %edx
	jbe	.L5173
.L1713:
	imull	$1993007183, %eax, %edx
	cmpl	$306805, %edx
	jbe	.L5174
.L1714:
	imull	$221048713, %eax, %edx
	cmpl	$306586, %edx
	jbe	.L5175
.L1715:
	imull	$-2006933901, %eax, %edx
	cmpl	$306542, %edx
	jbe	.L5176
.L1716:
	imull	$-766597627, %eax, %edx
	cmpl	$306149, %edx
	jbe	.L5177
.L1717:
	imull	$-1128144335, %eax, %edx
	cmpl	$306061, %edx
	jbe	.L5178
.L1718:
	imull	$1611185867, %eax, %edx
	cmpl	$305669, %edx
	jbe	.L5179
.L1719:
	imull	$-1673133735, %eax, %edx
	cmpl	$305539, %edx
	jbe	.L5180
.L1720:
	imull	$197487303, %eax, %edx
	cmpl	$305235, %edx
	jbe	.L5181
.L1721:
	imull	$617662721, %eax, %edx
	cmpl	$305018, %edx
	jbe	.L5182
.L1722:
	imull	$-358650965, %eax, %edx
	cmpl	$304975, %edx
	jbe	.L5183
.L1723:
	imull	$249398967, %eax, %edx
	cmpl	$304888, %edx
	jbe	.L5184
.L1724:
	imull	$-906671341, %eax, %edx
	cmpl	$304456, %edx
	jbe	.L5185
.L1725:
	imull	$352270527, %eax, %edx
	cmpl	$303681, %edx
	jbe	.L5186
.L1726:
	imull	$388547469, %eax, %edx
	cmpl	$303552, %edx
	jbe	.L5187
.L1727:
	imull	$-1011455239, %eax, %edx
	cmpl	$303466, %edx
	jbe	.L5188
.L1728:
	imull	$-1166639185, %eax, %edx
	cmpl	$303338, %edx
	jbe	.L5189
.L1729:
	imull	$1419433205, %eax, %edx
	cmpl	$303038, %edx
	jbe	.L5190
.L1730:
	imull	$1671998625, %eax, %edx
	cmpl	$302953, %edx
	jbe	.L5191
.L1731:
	imull	$1252761821, %eax, %edx
	cmpl	$302526, %edx
	jbe	.L5192
.L1732:
	imull	$437749887, %eax, %edx
	cmpl	$302313, %edx
	jbe	.L5193
.L1733:
	imull	$-500440251, %eax, %edx
	cmpl	$302015, %edx
	jbe	.L5194
.L1734:
	imull	$496350219, %eax, %edx
	cmpl	$301549, %edx
	jbe	.L5195
.L1735:
	imull	$-1079092071, %eax, %edx
	cmpl	$301422, %edx
	jbe	.L5196
.L1736:
	imull	$-1580135677, %eax, %edx
	cmpl	$301380, %edx
	jbe	.L5197
.L1737:
	imull	$-470969735, %eax, %edx
	cmpl	$300746, %edx
	jbe	.L5198
.L1738:
	imull	$764758397, %eax, %edx
	cmpl	$300494, %edx
	jbe	.L5199
.L1739:
	imull	$991839263, %eax, %edx
	cmpl	$300284, %edx
	jbe	.L5200
.L1740:
	imull	$-1029580527, %eax, %edx
	cmpl	$299906, %edx
	jbe	.L5201
.L1741:
	imull	$738867515, %eax, %edx
	cmpl	$299865, %edx
	jbe	.L5202
.L1742:
	imull	$-118113849, %eax, %edx
	cmpl	$299781, %edx
	jbe	.L5203
.L1743:
	imull	$-1578904371, %eax, %edx
	cmpl	$299488, %edx
	jbe	.L5204
.L1744:
	imull	$1439339427, %eax, %edx
	cmpl	$299363, %edx
	jbe	.L5205
.L1745:
	imull	$-1614984223, %eax, %edx
	cmpl	$298905, %edx
	jbe	.L5206
.L1746:
	imull	$-859471109, %eax, %edx
	cmpl	$298531, %edx
	jbe	.L5207
.L1747:
	imull	$406542877, %eax, %edx
	cmpl	$298489, %edx
	jbe	.L5208
.L1748:
	imull	$316135361, %eax, %edx
	cmpl	$298240, %edx
	jbe	.L5209
.L1749:
	imull	$-1908543113, %eax, %edx
	cmpl	$298116, %edx
	jbe	.L5210
.L1750:
	imull	$918540643, %eax, %edx
	cmpl	$298033, %edx
	jbe	.L5211
.L1751:
	imull	$-1014838309, %eax, %edx
	cmpl	$297868, %edx
	jbe	.L5212
.L1752:
	imull	$-2100284569, %eax, %edx
	cmpl	$297785, %edx
	jbe	.L5213
.L1753:
	imull	$-1730665569, %eax, %edx
	cmpl	$297620, %edx
	jbe	.L5214
.L1754:
	imull	$-895764115, %eax, %edx
	cmpl	$297497, %edx
	jbe	.L5215
.L1755:
	imull	$1082140303, %eax, %edx
	cmpl	$297291, %edx
	jbe	.L5216
.L1756:
	imull	$304384145, %eax, %edx
	cmpl	$297250, %edx
	jbe	.L5217
.L1757:
	imull	$-656080683, %eax, %edx
	cmpl	$297003, %edx
	jbe	.L5218
.L1758:
	imull	$-1762007441, %eax, %edx
	cmpl	$296634, %edx
	jbe	.L5219
.L1759:
	imull	$436640681, %eax, %edx
	cmpl	$296429, %edx
	jbe	.L5220
.L1760:
	imull	$-1206784233, %eax, %edx
	cmpl	$296143, %edx
	jbe	.L5221
.L1761:
	imull	$1117005063, %eax, %edx
	cmpl	$295817, %edx
	jbe	.L5222
.L1762:
	imull	$562988557, %eax, %edx
	cmpl	$295532, %edx
	jbe	.L5223
.L1763:
	imull	$-1999019655, %eax, %edx
	cmpl	$295450, %edx
	jbe	.L5224
.L1764:
	imull	$1267846703, %eax, %edx
	cmpl	$295328, %edx
	jbe	.L5225
.L1765:
	imull	$-1032634243, %eax, %edx
	cmpl	$295207, %edx
	jbe	.L5226
.L1766:
	imull	$-1426834713, %eax, %edx
	cmpl	$295166, %edx
	jbe	.L5227
.L1767:
	imull	$54288245, %eax, %edx
	cmpl	$295044, %edx
	jbe	.L5228
.L1768:
	imull	$2070350625, %eax, %edx
	cmpl	$294963, %edx
	jbe	.L5229
.L1769:
	imull	$1374342347, %eax, %edx
	cmpl	$294923, %edx
	jbe	.L5230
.L1770:
	imull	$-1974548737, %eax, %edx
	cmpl	$294357, %edx
	jbe	.L5231
.L1771:
	imull	$-1548695807, %eax, %edx
	cmpl	$294316, %edx
	jbe	.L5232
.L1772:
	imull	$-1043705547, %eax, %edx
	cmpl	$293753, %edx
	jbe	.L5233
.L1773:
	imull	$-1229734261, %eax, %edx
	cmpl	$293632, %edx
	jbe	.L5234
.L1774:
	imull	$2082159277, %eax, %edx
	cmpl	$293592, %edx
	jbe	.L5235
.L1775:
	imull	$344290073, %eax, %edx
	cmpl	$293512, %edx
	jbe	.L5236
.L1776:
	imull	$73641423, %eax, %edx
	cmpl	$293392, %edx
	jbe	.L5237
.L1777:
	imull	$246507029, %eax, %edx
	cmpl	$293111, %edx
	jbe	.L5238
.L1778:
	imull	$-984000831, %eax, %edx
	cmpl	$293031, %edx
	jbe	.L5239
.L1779:
	imull	$-1408915579, %eax, %edx
	cmpl	$292792, %edx
	jbe	.L5240
.L1780:
	imull	$-206221613, %eax, %edx
	cmpl	$292512, %edx
	jbe	.L5241
.L1781:
	imull	$971254595, %eax, %edx
	cmpl	$292194, %edx
	jbe	.L5242
.L1782:
	imull	$1083302089, %eax, %edx
	cmpl	$291916, %edx
	jbe	.L5243
.L1783:
	imull	$-1985951787, %eax, %edx
	cmpl	$291837, %edx
	jbe	.L5244
.L1784:
	imull	$-1631871701, %eax, %edx
	cmpl	$291718, %edx
	jbe	.L5245
.L1785:
	imull	$-721902045, %eax, %edx
	cmpl	$291559, %edx
	jbe	.L5246
.L1786:
	imull	$1883875185, %eax, %edx
	cmpl	$291441, %edx
	jbe	.L5247
.L1787:
	imull	$-79541827, %eax, %edx
	cmpl	$291362, %edx
	jbe	.L5248
.L1788:
	imull	$179405971, %eax, %edx
	cmpl	$291243, %edx
	jbe	.L5249
.L1789:
	imull	$-1004672415, %eax, %edx
	cmpl	$291125, %edx
	jbe	.L5250
.L1790:
	imull	$161799703, %eax, %edx
	cmpl	$291006, %edx
	jbe	.L5251
.L1791:
	imull	$-836190897, %eax, %edx
	cmpl	$290849, %edx
	jbe	.L5252
.L1792:
	imull	$498670971, %eax, %edx
	cmpl	$290770, %edx
	jbe	.L5253
.L1793:
	imull	$1563206515, %eax, %edx
	cmpl	$290612, %edx
	jbe	.L5254
.L1794:
	imull	$-98781633, %eax, %edx
	cmpl	$290534, %edx
	jbe	.L5255
.L1795:
	imull	$2050972421, %eax, %edx
	cmpl	$290259, %edx
	jbe	.L5256
.L1796:
	imull	$-2021792139, %eax, %edx
	cmpl	$289945, %edx
	jbe	.L5257
.L1797:
	imull	$-218211347, %eax, %edx
	cmpl	$289789, %edx
	jbe	.L5258
.L1798:
	imull	$334571203, %eax, %edx
	cmpl	$289672, %edx
	jbe	.L5259
.L1799:
	imull	$-1534847729, %eax, %edx
	cmpl	$289593, %edx
	jbe	.L5260
.L1800:
	imull	$1096673587, %eax, %edx
	cmpl	$289359, %edx
	jbe	.L5261
.L1801:
	imull	$371048619, %eax, %edx
	cmpl	$289203, %edx
	jbe	.L5262
.L1802:
	imull	$-346382309, %eax, %edx
	cmpl	$288892, %edx
	jbe	.L5263
.L1803:
	imull	$-1774140099, %eax, %edx
	cmpl	$288853, %edx
	jbe	.L5264
.L1804:
	imull	$-1534803489, %eax, %edx
	cmpl	$288659, %edx
	jbe	.L5265
.L1805:
	imull	$-571239017, %eax, %edx
	cmpl	$288504, %edx
	jbe	.L5266
.L1806:
	imull	$854897795, %eax, %edx
	cmpl	$288427, %edx
	jbe	.L5267
.L1807:
	imull	$-1300570415, %eax, %edx
	cmpl	$288310, %edx
	jbe	.L5268
.L1808:
	imull	$437469027, %eax, %edx
	cmpl	$287808, %edx
	jbe	.L5269
.L1809:
	imull	$1696812721, %eax, %edx
	cmpl	$287692, %edx
	jbe	.L5270
.L1810:
	imull	$-1870764589, %eax, %edx
	cmpl	$287500, %edx
	jbe	.L5271
.L1811:
	imull	$1099962187, %eax, %edx
	cmpl	$287346, %edx
	jbe	.L5272
.L1812:
	imull	$120078679, %eax, %edx
	cmpl	$287269, %edx
	jbe	.L5273
.L1813:
	imull	$1586814821, %eax, %edx
	cmpl	$287154, %edx
	jbe	.L5274
.L1814:
	imull	$374149065, %eax, %edx
	cmpl	$286924, %edx
	jbe	.L5275
.L1815:
	imull	$-86283465, %eax, %edx
	cmpl	$286656, %edx
	jbe	.L5276
.L1816:
	imull	$4005165, %eax, %edx
	cmpl	$286083, %edx
	jbe	.L5277
.L1817:
	imull	$-461043303, %eax, %edx
	cmpl	$286007, %edx
	jbe	.L5278
.L1818:
	imull	$1440989959, %eax, %edx
	cmpl	$285740, %edx
	jbe	.L5279
.L1819:
	imull	$-533839355, %eax, %edx
	cmpl	$285323, %edx
	jbe	.L5280
.L1820:
	imull	$1452093053, %eax, %edx
	cmpl	$285171, %edx
	jbe	.L5281
.L1821:
	imull	$355895585, %eax, %edx
	cmpl	$284944, %edx
	jbe	.L5282
.L1822:
	imull	$-1395002643, %eax, %edx
	cmpl	$284868, %edx
	jbe	.L5283
.L1823:
	imull	$-455893565, %eax, %edx
	cmpl	$284755, %edx
	jbe	.L5284
.L1824:
	imull	$174747195, %eax, %edx
	cmpl	$284604, %edx
	jbe	.L5285
.L1825:
	imull	$1144205909, %eax, %edx
	cmpl	$284416, %edx
	jbe	.L5286
.L1826:
	imull	$842958763, %eax, %edx
	cmpl	$284303, %edx
	jbe	.L5287
.L1827:
	imull	$-336587279, %eax, %edx
	cmpl	$284039, %edx
	jbe	.L5288
.L1828:
	imull	$1041737491, %eax, %edx
	cmpl	$283852, %edx
	jbe	.L5289
.L1829:
	imull	$-896333599, %eax, %edx
	cmpl	$283739, %edx
	jbe	.L5290
.L1830:
	imull	$1480641675, %eax, %edx
	cmpl	$283702, %edx
	jbe	.L5291
.L1831:
	imull	$1522191525, %eax, %edx
	cmpl	$283514, %edx
	jbe	.L5292
.L1832:
	imull	$1852719881, %eax, %edx
	cmpl	$283290, %edx
	jbe	.L5293
.L1833:
	imull	$-2012602483, %eax, %edx
	cmpl	$283066, %edx
	jbe	.L5294
.L1834:
	imull	$76923099, %eax, %edx
	cmpl	$282805, %edx
	jbe	.L5295
.L1835:
	imull	$-848929559, %eax, %edx
	cmpl	$282693, %edx
	jbe	.L5296
.L1836:
	imull	$-1525096289, %eax, %edx
	cmpl	$282582, %edx
	jbe	.L5297
.L1837:
	imull	$1379345809, %eax, %edx
	cmpl	$282247, %edx
	jbe	.L5298
.L1838:
	imull	$-20026445, %eax, %edx
	cmpl	$282062, %edx
	jbe	.L5299
.L1839:
	imull	$1223951489, %eax, %edx
	cmpl	$281951, %edx
	jbe	.L5300
.L1840:
	imull	$-957568327, %eax, %edx
	cmpl	$281803, %edx
	jbe	.L5301
.L1841:
	imull	$939831955, %eax, %edx
	cmpl	$281471, %edx
	jbe	.L5302
.L1842:
	imull	$-204857249, %eax, %edx
	cmpl	$281397, %edx
	jbe	.L5303
.L1843:
	imull	$-1124584403, %eax, %edx
	cmpl	$281286, %edx
	jbe	.L5304
.L1844:
	imull	$1609874455, %eax, %edx
	cmpl	$281249, %edx
	jbe	.L5305
.L1845:
	imull	$1925242917, %eax, %edx
	cmpl	$281139, %edx
	jbe	.L5306
.L1846:
	imull	$-242183673, %eax, %edx
	cmpl	$280955, %edx
	jbe	.L5307
.L1847:
	imull	$-865510775, %eax, %edx
	cmpl	$280918, %edx
	jbe	.L5308
.L1848:
	imull	$190057707, %eax, %edx
	cmpl	$280735, %edx
	jbe	.L5309
.L1849:
	imull	$103256547, %eax, %edx
	cmpl	$280588, %edx
	jbe	.L5310
.L1850:
	imull	$673709361, %eax, %edx
	cmpl	$280478, %edx
	jbe	.L5311
.L1851:
	imull	$1127081959, %eax, %edx
	cmpl	$280368, %edx
	jbe	.L1852
.L1854:
	cmpl	$234978240, %eax
	jbe	.L225
	imull	$457263137, %eax, %edx
	cmpl	$280185, %edx
	jbe	.L5312
.L1855:
	imull	$-1954881077, %eax, %edx
	cmpl	$280149, %edx
	jbe	.L5313
.L1856:
	imull	$1263949917, %eax, %edx
	cmpl	$279820, %edx
	jbe	.L5314
.L1857:
	imull	$837796863, %eax, %edx
	cmpl	$279638, %edx
	jbe	.L5315
.L1858:
	imull	$1309656065, %eax, %edx
	cmpl	$279602, %edx
	jbe	.L5316
.L1859:
	imull	$811889349, %eax, %edx
	cmpl	$279383, %edx
	jbe	.L5317
.L1860:
	imull	$1582576881, %eax, %edx
	cmpl	$279311, %edx
	jbe	.L5318
.L1861:
	imull	$-2144552025, %eax, %edx
	cmpl	$279202, %edx
	jbe	.L5319
.L1862:
	imull	$-285196321, %eax, %edx
	cmpl	$279057, %edx
	jbe	.L5320
.L1863:
	imull	$-479387623, %eax, %edx
	cmpl	$278875, %edx
	jbe	.L5321
.L1864:
	imull	$1391343133, %eax, %edx
	cmpl	$278658, %edx
	jbe	.L5322
.L1865:
	imull	$-663162773, %eax, %edx
	cmpl	$278405, %edx
	jbe	.L5323
.L1866:
	imull	$-1284678993, %eax, %edx
	cmpl	$278189, %edx
	jbe	.L5324
.L1867:
	imull	$1635608539, %eax, %edx
	cmpl	$278117, %edx
	jbe	.L5325
.L1868:
	imull	$408064979, %eax, %edx
	cmpl	$277973, %edx
	jbe	.L5326
.L1869:
	imull	$-1291184787, %eax, %edx
	cmpl	$277793, %edx
	jbe	.L5327
.L1870:
	imull	$1457295427, %eax, %edx
	cmpl	$277685, %edx
	jbe	.L5328
.L1871:
	imull	$330040465, %eax, %edx
	cmpl	$277578, %edx
	jbe	.L5329
.L1872:
	imull	$-136946611, %eax, %edx
	cmpl	$277219, %edx
	jbe	.L5330
.L1873:
	imull	$-1365509703, %eax, %edx
	cmpl	$277148, %edx
	jbe	.L5331
.L1874:
	imull	$-1511587033, %eax, %edx
	cmpl	$276898, %edx
	jbe	.L5332
.L1875:
	imull	$-659444969, %eax, %edx
	cmpl	$276612, %edx
	jbe	.L5333
.L1876:
	imull	$-1090530915, %eax, %edx
	cmpl	$276363, %edx
	jbe	.L5334
.L1877:
	imull	$-689360065, %eax, %edx
	cmpl	$276185, %edx
	jbe	.L5335
.L1878:
	imull	$-1780759305, %eax, %edx
	cmpl	$276043, %edx
	jbe	.L5336
.L1879:
	imull	$1909824561, %eax, %edx
	cmpl	$275866, %edx
	jbe	.L5337
.L1880:
	imull	$1474198389, %eax, %edx
	cmpl	$275654, %edx
	jbe	.L5338
.L1881:
	imull	$-1862631649, %eax, %edx
	cmpl	$275618, %edx
	jbe	.L5339
.L1882:
	imull	$-1454689263, %eax, %edx
	cmpl	$275300, %edx
	jbe	.L5340
.L1883:
	imull	$-2137439033, %eax, %edx
	cmpl	$275194, %edx
	jbe	.L5341
.L1884:
	imull	$452072875, %eax, %edx
	cmpl	$274983, %edx
	jbe	.L5342
.L1885:
	imull	$1914034629, %eax, %edx
	cmpl	$274807, %edx
	jbe	.L5343
.L1886:
	imull	$-1243099351, %eax, %edx
	cmpl	$274596, %edx
	jbe	.L5344
.L1887:
	imull	$766301459, %eax, %edx
	cmpl	$274561, %edx
	jbe	.L5345
.L1888:
	imull	$-1306853665, %eax, %edx
	cmpl	$274491, %edx
	jbe	.L5346
.L1889:
	imull	$-211056927, %eax, %edx
	cmpl	$274456, %edx
	jbe	.L5347
.L1890:
	imull	$1500125861, %eax, %edx
	cmpl	$274246, %edx
	jbe	.L5348
.L1891:
	imull	$1931871739, %eax, %edx
	cmpl	$274141, %edx
	jbe	.L5349
.L1892:
	imull	$-1665529721, %eax, %edx
	cmpl	$274071, %edx
	jbe	.L5350
.L1893:
	imull	$-383503681, %eax, %edx
	cmpl	$273931, %edx
	jbe	.L5351
.L1894:
	imull	$268384107, %eax, %edx
	cmpl	$273861, %edx
	jbe	.L5352
.L1895:
	imull	$1522778511, %eax, %edx
	cmpl	$273095, %edx
	jbe	.L5353
.L1896:
	imull	$646524859, %eax, %edx
	cmpl	$273025, %edx
	jbe	.L5354
.L1897:
	imull	$-1083774243, %eax, %edx
	cmpl	$272990, %edx
	jbe	.L5355
.L1898:
	imull	$1219140809, %eax, %edx
	cmpl	$272921, %edx
	jbe	.L5356
.L1899:
	imull	$1664883123, %eax, %edx
	cmpl	$272886, %edx
	jbe	.L5357
.L1900:
	imull	$-1900268723, %eax, %edx
	cmpl	$272713, %edx
	jbe	.L5358
.L1901:
	imull	$-354802831, %eax, %edx
	cmpl	$272506, %edx
	jbe	.L5359
.L1902:
	imull	$-1179774425, %eax, %edx
	cmpl	$272402, %edx
	jbe	.L5360
.L1903:
	imull	$104018101, %eax, %edx
	cmpl	$272298, %edx
	jbe	.L5361
.L1904:
	imull	$-703539965, %eax, %edx
	cmpl	$272057, %edx
	jbe	.L5362
.L1905:
	imull	$-1507903153, %eax, %edx
	cmpl	$271988, %edx
	jbe	.L5363
.L1906:
	imull	$1577748637, %eax, %edx
	cmpl	$271884, %edx
	jbe	.L5364
.L1907:
	imull	$-314179725, %eax, %edx
	cmpl	$271781, %edx
	jbe	.L5365
.L1908:
	imull	$793301569, %eax, %edx
	cmpl	$271678, %edx
	jbe	.L5366
.L1909:
	imull	$943877241, %eax, %edx
	cmpl	$271541, %edx
	jbe	.L5367
.L1910:
	imull	$1059694895, %eax, %edx
	cmpl	$271438, %edx
	jbe	.L5368
.L1911:
	imull	$1702929211, %eax, %edx
	cmpl	$270822, %edx
	jbe	.L5369
.L1912:
	imull	$-87105843, %eax, %edx
	cmpl	$270515, %edx
	jbe	.L5370
.L1913:
	imull	$-1108561863, %eax, %edx
	cmpl	$270446, %edx
	jbe	.L5371
.L1914:
	imull	$-118951697, %eax, %edx
	cmpl	$270344, %edx
	jbe	.L5372
.L1915:
	imull	$-402492687, %eax, %edx
	cmpl	$270310, %edx
	jbe	.L5373
.L1916:
	imull	$-2119797707, %eax, %edx
	cmpl	$270106, %edx
	jbe	.L5374
.L1917:
	imull	$-1743691381, %eax, %edx
	cmpl	$270004, %edx
	jbe	.L5375
.L1918:
	imull	$-1358152167, %eax, %edx
	cmpl	$269903, %edx
	jbe	.L5376
.L1919:
	imull	$387434703, %eax, %edx
	cmpl	$269801, %edx
	jbe	.L5377
.L1920:
	imull	$467987707, %eax, %edx
	cmpl	$269733, %edx
	jbe	.L5378
.L1921:
	imull	$-377564735, %eax, %edx
	cmpl	$269496, %edx
	jbe	.L5379
.L1922:
	imull	$39292263, %eax, %edx
	cmpl	$269125, %edx
	jbe	.L5380
.L1923:
	imull	$-696241333, %eax, %edx
	cmpl	$268922, %edx
	jbe	.L5381
.L1924:
	imull	$-205700243, %eax, %edx
	cmpl	$268889, %edx
	jbe	.L5382
.L1925:
	imull	$-1898906809, %eax, %edx
	cmpl	$268586, %edx
	jbe	.L5383
.L1926:
	imull	$1923219841, %eax, %edx
	cmpl	$268418, %edx
	jbe	.L5384
.L1927:
	imull	$1697916727, %eax, %edx
	cmpl	$268318, %edx
	jbe	.L5385
.L1928:
	imull	$804988257, %eax, %edx
	cmpl	$267882, %edx
	jbe	.L5386
.L1929:
	imull	$-1699584119, %eax, %edx
	cmpl	$267482, %edx
	jbe	.L5387
.L1930:
	imull	$-401658731, %eax, %edx
	cmpl	$267415, %edx
	jbe	.L5388
.L1931:
	imull	$-1785581249, %eax, %edx
	cmpl	$267382, %edx
	jbe	.L5389
.L1932:
	imull	$622846443, %eax, %edx
	cmpl	$267316, %edx
	jbe	.L5390
.L1933:
	imull	$349605901, %eax, %edx
	cmpl	$267282, %edx
	jbe	.L5391
.L1934:
	imull	$-1994769543, %eax, %edx
	cmpl	$267216, %edx
	jbe	.L5392
.L1935:
	imull	$-2134534937, %eax, %edx
	cmpl	$266983, %edx
	jbe	.L5393
.L1936:
	imull	$687312211, %eax, %edx
	cmpl	$266917, %edx
	jbe	.L5394
.L1937:
	imull	$-907180767, %eax, %edx
	cmpl	$266817, %edx
	jbe	.L5395
.L1938:
	imull	$1704064215, %eax, %edx
	cmpl	$266718, %edx
	jbe	.L5396
.L1939:
	imull	$-154619889, %eax, %edx
	cmpl	$266586, %edx
	jbe	.L5397
.L1940:
	imull	$830390527, %eax, %edx
	cmpl	$266321, %edx
	jbe	.L5398
.L1941:
	imull	$530650275, %eax, %edx
	cmpl	$266123, %edx
	jbe	.L5399
.L1942:
	imull	$-1243174971, %eax, %edx
	cmpl	$266090, %edx
	jbe	.L5400
.L1943:
	imull	$916956807, %eax, %edx
	cmpl	$265399, %edx
	jbe	.L5401
.L1944:
	imull	$-1077788173, %eax, %edx
	cmpl	$265334, %edx
	jbe	.L5402
.L1945:
	imull	$479399957, %eax, %edx
	cmpl	$265301, %edx
	jbe	.L5403
.L1946:
	imull	$-1257484095, %eax, %edx
	cmpl	$265236, %edx
	jbe	.L5404
.L1947:
	imull	$1942362345, %eax, %edx
	cmpl	$264843, %edx
	jbe	.L5405
.L1948:
	imull	$679337119, %eax, %edx
	cmpl	$264745, %edx
	jbe	.L5406
.L1949:
	imull	$1647696493, %eax, %edx
	cmpl	$264647, %edx
	jbe	.L5407
.L1950:
	imull	$94202967, %eax, %edx
	cmpl	$264615, %edx
	jbe	.L5408
.L1951:
	imull	$1105394377, %eax, %edx
	cmpl	$264321, %edx
	jbe	.L5409
.L1952:
	imull	$2011787733, %eax, %edx
	cmpl	$264256, %edx
	jbe	.L5410
.L1953:
	imull	$-1982861277, %eax, %edx
	cmpl	$264029, %edx
	jbe	.L5411
.L1954:
	imull	$1609458033, %eax, %edx
	cmpl	$263932, %edx
	jbe	.L5412
.L1955:
	imull	$-1921287131, %eax, %edx
	cmpl	$263478, %edx
	jbe	.L5413
.L1956:
	imull	$589541439, %eax, %edx
	cmpl	$263188, %edx
	jbe	.L5414
.L1957:
	imull	$142525701, %eax, %edx
	cmpl	$262962, %edx
	jbe	.L5415
.L1958:
	imull	$-1158713253, %eax, %edx
	cmpl	$262865, %edx
	jbe	.L5416
.L1959:
	imull	$1873350773, %eax, %edx
	cmpl	$262705, %edx
	jbe	.L5417
.L1960:
	imull	$-628717479, %eax, %edx
	cmpl	$262512, %edx
	jbe	.L5418
.L1961:
	imull	$99217603, %eax, %edx
	cmpl	$262480, %edx
	jbe	.L5419
.L1962:
	imull	$-800534255, %eax, %edx
	cmpl	$262384, %edx
	jbe	.L5420
.L1963:
	imull	$1103566165, %eax, %edx
	cmpl	$262192, %edx
	jbe	.L5421
.L1964:
	imull	$-2131650029, %eax, %edx
	cmpl	$261712, %edx
	jbe	.L5422
.L1965:
	imull	$-887143455, %eax, %edx
	cmpl	$261617, %edx
	jbe	.L5423
.L1966:
	imull	$1687280557, %eax, %edx
	cmpl	$261553, %edx
	jbe	.L5424
.L1967:
	imull	$836664963, %eax, %edx
	cmpl	$261457, %edx
	jbe	.L5425
.L1968:
	imull	$-1820911407, %eax, %edx
	cmpl	$261362, %edx
	jbe	.L5426
.L1969:
	imull	$-1562660929, %eax, %edx
	cmpl	$261139, %edx
	jbe	.L5427
.L1970:
	imull	$1249250411, %eax, %edx
	cmpl	$261076, %edx
	jbe	.L5428
.L1971:
	imull	$1792332429, %eax, %edx
	cmpl	$261044, %edx
	jbe	.L5429
.L1972:
	imull	$489788405, %eax, %edx
	cmpl	$260664, %edx
	jbe	.L5430
.L1973:
	imull	$-734895199, %eax, %edx
	cmpl	$260601, %edx
	jbe	.L5431
.L1974:
	imull	$-446768297, %eax, %edx
	cmpl	$260506, %edx
	jbe	.L5432
.L1975:
	imull	$-1711945371, %eax, %edx
	cmpl	$260411, %edx
	jbe	.L5433
.L1976:
	imull	$-449542857, %eax, %edx
	cmpl	$260001, %edx
	jbe	.L5434
.L1977:
	imull	$862683249, %eax, %edx
	cmpl	$259844, %edx
	jbe	.L5435
.L1978:
	imull	$1551659787, %eax, %edx
	cmpl	$259561, %edx
	jbe	.L5436
.L1979:
	imull	$2132304793, %eax, %edx
	cmpl	$259467, %edx
	jbe	.L5437
.L1980:
	imull	$-2050619311, %eax, %edx
	cmpl	$259342, %edx
	jbe	.L5438
.L1981:
	imull	$-1071473401, %eax, %edx
	cmpl	$259248, %edx
	jbe	.L5439
.L1982:
	imull	$1671805589, %eax, %edx
	cmpl	$259154, %edx
	jbe	.L5440
.L1983:
	imull	$638696275, %eax, %edx
	cmpl	$258686, %edx
	jbe	.L5441
.L1984:
	imull	$-1210877153, %eax, %edx
	cmpl	$258623, %edx
	jbe	.L5442
.L1985:
	imull	$-988780605, %eax, %edx
	cmpl	$258437, %edx
	jbe	.L5443
.L1986:
	imull	$-1732345657, %eax, %edx
	cmpl	$258250, %edx
	jbe	.L5444
.L1987:
	imull	$-726630071, %eax, %edx
	cmpl	$258219, %edx
	jbe	.L5445
.L1988:
	imull	$1314364729, %eax, %edx
	cmpl	$257971, %edx
	jbe	.L5446
.L1989:
	imull	$-70417757, %eax, %edx
	cmpl	$257940, %edx
	jbe	.L5447
.L1990:
	imull	$-121188367, %eax, %edx
	cmpl	$257847, %edx
	jbe	.L5448
.L1991:
	imull	$457311805, %eax, %edx
	cmpl	$257785, %edx
	jbe	.L5449
.L1992:
	imull	$607421153, %eax, %edx
	cmpl	$257600, %edx
	jbe	.L5450
.L1993:
	imull	$-1404722693, %eax, %edx
	cmpl	$257322, %edx
	jbe	.L5451
.L1994:
	imull	$-1469134563, %eax, %edx
	cmpl	$257291, %edx
	jbe	.L5452
.L1995:
	imull	$1523904499, %eax, %edx
	cmpl	$257199, %edx
	jbe	.L5453
.L1996:
	imull	$275394239, %eax, %edx
	cmpl	$257137, %edx
	jbe	.L5454
.L1997:
	imull	$-392038679, %eax, %edx
	cmpl	$256737, %edx
	jbe	.L5455
.L1998:
	imull	$-580581267, %eax, %edx
	cmpl	$256553, %edx
	jbe	.L5456
.L1999:
	imull	$-200809661, %eax, %edx
	cmpl	$256461, %edx
	jbe	.L5457
.L2000:
	imull	$381085767, %eax, %edx
	cmpl	$256278, %edx
	jbe	.L5458
.L2001:
	imull	$-1675659853, %eax, %edx
	cmpl	$256217, %edx
	jbe	.L5459
.L2002:
	imull	$-1859779429, %eax, %edx
	cmpl	$255850, %edx
	jbe	.L5460
.L2003:
	imull	$-1882672893, %eax, %edx
	cmpl	$255485, %edx
	jbe	.L5461
.L2004:
	imull	$1508076551, %eax, %edx
	cmpl	$255303, %edx
	jbe	.L5462
.L2005:
	imull	$1534591381, %eax, %edx
	cmpl	$255212, %edx
	jbe	.L5463
.L2006:
	imull	$2093002303, %eax, %edx
	cmpl	$255181, %edx
	jbe	.L5464
.L2007:
	imull	$-757605405, %eax, %edx
	cmpl	$255000, %edx
	jbe	.L5465
.L2008:
	imull	$283853271, %eax, %edx
	cmpl	$254576, %edx
	jbe	.L5466
.L2009:
	imull	$344788239, %eax, %edx
	cmpl	$254456, %edx
	jbe	.L5467
.L2010:
	imull	$150093627, %eax, %edx
	cmpl	$254395, %edx
	jbe	.L5468
.L2011:
	imull	$1805824073, %eax, %edx
	cmpl	$254305, %edx
	jbe	.L5469
.L2012:
	imull	$1465793229, %eax, %edx
	cmpl	$254125, %edx
	jbe	.L5470
.L2013:
	imull	$1519487927, %eax, %edx
	cmpl	$254094, %edx
	jbe	.L5471
.L2014:
	imull	$835844649, %eax, %edx
	cmpl	$253824, %edx
	jbe	.L5472
.L2015:
	imull	$-1136477729, %eax, %edx
	cmpl	$253734, %edx
	jbe	.L5473
.L2016:
	imull	$817593739, %eax, %edx
	cmpl	$253674, %edx
	jbe	.L5474
.L2017:
	imull	$1059224089, %eax, %edx
	cmpl	$253584, %edx
	jbe	.L5475
.L2018:
	imull	$-173390641, %eax, %edx
	cmpl	$253495, %edx
	jbe	.L5476
.L2019:
	imull	$458791531, %eax, %edx
	cmpl	$253196, %edx
	jbe	.L5477
.L2020:
	imull	$380195291, %eax, %edx
	cmpl	$252957, %edx
	jbe	.L5478
.L2021:
	imull	$1793764093, %eax, %edx
	cmpl	$252927, %edx
	jbe	.L5479
.L2022:
	imull	$1910447571, %eax, %edx
	cmpl	$252838, %edx
	jbe	.L5480
.L2023:
	imull	$-740302431, %eax, %edx
	cmpl	$252749, %edx
	jbe	.L5481
.L2024:
	imull	$-73977157, %eax, %edx
	cmpl	$252481, %edx
	jbe	.L5482
.L2025:
	imull	$814532309, %eax, %edx
	cmpl	$252333, %edx
	jbe	.L5483
.L2026:
	imull	$-1689281493, %eax, %edx
	cmpl	$252244, %edx
	jbe	.L5484
.L2027:
	imull	$-1557174707, %eax, %edx
	cmpl	$252214, %edx
	jbe	.L5485
.L2028:
	imull	$1995559865, %eax, %edx
	cmpl	$252155, %edx
	jbe	.L5486
.L2029:
	imull	$1850457713, %eax, %edx
	cmpl	$252037, %edx
	jbe	.L5487
.L2030:
	imull	$-536650457, %eax, %edx
	cmpl	$251948, %edx
	jbe	.L5488
.L2031:
	imull	$-1046981707, %eax, %edx
	cmpl	$251859, %edx
	jbe	.L5489
.L2032:
	imull	$1347820445, %eax, %edx
	cmpl	$251505, %edx
	jbe	.L2033
.L2035:
	cmpl	$292170648, %eax
	jbe	.L225
	imull	$866380813, %eax, %edx
	cmpl	$251270, %edx
	jbe	.L5490
.L2036:
	imull	$-1368943901, %eax, %edx
	cmpl	$251182, %edx
	jbe	.L5491
.L2037:
	imull	$1869178203, %eax, %edx
	cmpl	$251064, %edx
	jbe	.L5492
.L2038:
	imull	$-857889419, %eax, %edx
	cmpl	$250918, %edx
	jbe	.L5493
.L2039:
	imull	$-1187179829, %eax, %edx
	cmpl	$250830, %edx
	jbe	.L5494
.L2040:
	imull	$649621009, %eax, %edx
	cmpl	$250625, %edx
	jbe	.L5495
.L2041:
	imull	$532396727, %eax, %edx
	cmpl	$250304, %edx
	jbe	.L5496
.L2042:
	imull	$-1574679569, %eax, %edx
	cmpl	$250187, %edx
	jbe	.L5497
.L2043:
	imull	$1825667295, %eax, %edx
	cmpl	$249954, %edx
	jbe	.L5498
.L2044:
	imull	$-178904915, %eax, %edx
	cmpl	$249867, %edx
	jbe	.L5499
.L2045:
	imull	$-216859497, %eax, %edx
	cmpl	$249838, %edx
	jbe	.L5500
.L2046:
	imull	$1660514299, %eax, %edx
	cmpl	$249663, %edx
	jbe	.L5501
.L2047:
	imull	$-290790777, %eax, %edx
	cmpl	$249605, %edx
	jbe	.L5502
.L2048:
	imull	$385596169, %eax, %edx
	cmpl	$249576, %edx
	jbe	.L5503
.L2049:
	imull	$498267055, %eax, %edx
	cmpl	$249258, %edx
	jbe	.L5504
.L2050:
	imull	$1289312359, %eax, %edx
	cmpl	$249142, %edx
	jbe	.L5505
.L2051:
	imull	$-1574929191, %eax, %edx
	cmpl	$248882, %edx
	jbe	.L5506
.L2052:
	imull	$1391250467, %eax, %edx
	cmpl	$248393, %edx
	jbe	.L5507
.L2053:
	imull	$859092805, %eax, %edx
	cmpl	$248364, %edx
	jbe	.L5508
.L2054:
	imull	$-800697701, %eax, %edx
	cmpl	$248278, %edx
	jbe	.L5509
.L2055:
	imull	$666430509, %eax, %edx
	cmpl	$248020, %edx
	jbe	.L5510
.L2056:
	imull	$819269785, %eax, %edx
	cmpl	$247963, %edx
	jbe	.L5511
.L2057:
	imull	$1779757903, %eax, %edx
	cmpl	$247877, %edx
	jbe	.L5512
.L2058:
	imull	$782029469, %eax, %edx
	cmpl	$247791, %edx
	jbe	.L5513
.L2059:
	imull	$19566485, %eax, %edx
	cmpl	$247677, %edx
	jbe	.L5514
.L2060:
	imull	$507940343, %eax, %edx
	cmpl	$247534, %edx
	jbe	.L5515
.L2061:
	imull	$213771055, %eax, %edx
	cmpl	$247420, %edx
	jbe	.L5516
.L2062:
	imull	$-1897971679, %eax, %edx
	cmpl	$247163, %edx
	jbe	.L5517
.L2063:
	imull	$440541143, %eax, %edx
	cmpl	$247078, %edx
	jbe	.L5518
.L2064:
	imull	$2059914435, %eax, %edx
	cmpl	$247021, %edx
	jbe	.L5519
.L2065:
	imull	$1228050917, %eax, %edx
	cmpl	$246993, %edx
	jbe	.L5520
.L2066:
	imull	$-1068741359, %eax, %edx
	cmpl	$246936, %edx
	jbe	.L5521
.L2067:
	imull	$-786624951, %eax, %edx
	cmpl	$246823, %edx
	jbe	.L5522
.L2068:
	imull	$2049215033, %eax, %edx
	cmpl	$246596, %edx
	jbe	.L5523
.L2069:
	imull	$1808082851, %eax, %edx
	cmpl	$246567, %edx
	jbe	.L5524
.L2070:
	imull	$1656042407, %eax, %edx
	cmpl	$246398, %edx
	jbe	.L5525
.L2071:
	imull	$1232374667, %eax, %edx
	cmpl	$246228, %edx
	jbe	.L5526
.L2072:
	imull	$-1550215143, %eax, %edx
	cmpl	$246144, %edx
	jbe	.L5527
.L2073:
	imull	$1941304563, %eax, %edx
	cmpl	$245890, %edx
	jbe	.L5528
.L2074:
	imull	$-1811305537, %eax, %edx
	cmpl	$245834, %edx
	jbe	.L5529
.L2075:
	imull	$496905869, %eax, %edx
	cmpl	$245749, %edx
	jbe	.L5530
.L2076:
	imull	$-832805533, %eax, %edx
	cmpl	$245665, %edx
	jbe	.L5531
.L2077:
	imull	$1617396913, %eax, %edx
	cmpl	$245581, %edx
	jbe	.L5532
.L2078:
	imull	$-359489573, %eax, %edx
	cmpl	$245552, %edx
	jbe	.L5533
.L2079:
	imull	$-83704855, %eax, %edx
	cmpl	$245468, %edx
	jbe	.L5534
.L2080:
	imull	$-1480143507, %eax, %edx
	cmpl	$245300, %edx
	jbe	.L5535
.L2081:
	imull	$834771599, %eax, %edx
	cmpl	$245160, %edx
	jbe	.L5536
.L2082:
	imull	$549268011, %eax, %edx
	cmpl	$244880, %edx
	jbe	.L5537
.L2083:
	imull	$-810001809, %eax, %edx
	cmpl	$244713, %edx
	jbe	.L5538
.L2084:
	imull	$1233559393, %eax, %edx
	cmpl	$244462, %edx
	jbe	.L5539
.L2085:
	imull	$1269695277, %eax, %edx
	cmpl	$244407, %edx
	jbe	.L5540
.L2086:
	imull	$-917924349, %eax, %edx
	cmpl	$244323, %edx
	jbe	.L5541
.L2087:
	imull	$-1648509147, %eax, %edx
	cmpl	$244295, %edx
	jbe	.L5542
.L2088:
	imull	$1661654677, %eax, %edx
	cmpl	$244073, %edx
	jbe	.L5543
.L2089:
	imull	$-983749825, %eax, %edx
	cmpl	$244046, %edx
	jbe	.L5544
.L2090:
	imull	$484644217, %eax, %edx
	cmpl	$243907, %edx
	jbe	.L5545
.L2091:
	imull	$1678700263, %eax, %edx
	cmpl	$243713, %edx
	jbe	.L5546
.L2092:
	imull	$-1387391149, %eax, %edx
	cmpl	$243658, %edx
	jbe	.L5547
.L2093:
	imull	$329596233, %eax, %edx
	cmpl	$243244, %edx
	jbe	.L5548
.L2094:
	imull	$-787536333, %eax, %edx
	cmpl	$243216, %edx
	jbe	.L5549
.L2095:
	imull	$-851263539, %eax, %edx
	cmpl	$243079, %edx
	jbe	.L5550
.L2096:
	imull	$391334897, %eax, %edx
	cmpl	$242914, %edx
	jbe	.L5551
.L2097:
	imull	$-666481381, %eax, %edx
	cmpl	$242886, %edx
	jbe	.L5552
.L2098:
	imull	$-722579069, %eax, %edx
	cmpl	$242557, %edx
	jbe	.L5553
.L2099:
	imull	$-516230191, %eax, %edx
	cmpl	$242475, %edx
	jbe	.L5554
.L2100:
	imull	$1191660225, %eax, %edx
	cmpl	$242256, %edx
	jbe	.L5555
.L2101:
	imull	$352566521, %eax, %edx
	cmpl	$242147, %edx
	jbe	.L5556
.L2102:
	imull	$1978681051, %eax, %edx
	cmpl	$242010, %edx
	jbe	.L5557
.L2103:
	imull	$83726333, %eax, %edx
	cmpl	$241983, %edx
	jbe	.L5558
.L2104:
	imull	$-1047322975, %eax, %edx
	cmpl	$241820, %edx
	jbe	.L5559
.L2105:
	imull	$-451402681, %eax, %edx
	cmpl	$241520, %edx
	jbe	.L5560
.L2106:
	imull	$-1126556715, %eax, %edx
	cmpl	$241439, %edx
	jbe	.L5561
.L2107:
	imull	$-2034140545, %eax, %edx
	cmpl	$241412, %edx
	jbe	.L5562
.L2108:
	imull	$-1194641041, %eax, %edx
	cmpl	$241195, %edx
	jbe	.L5563
.L2109:
	imull	$-737470965, %eax, %edx
	cmpl	$240924, %edx
	jbe	.L5564
.L2110:
	imull	$1298097701, %eax, %edx
	cmpl	$240789, %edx
	jbe	.L5565
.L2111:
	imull	$799813967, %eax, %edx
	cmpl	$240762, %edx
	jbe	.L5566
.L2112:
	imull	$1167636339, %eax, %edx
	cmpl	$240600, %edx
	jbe	.L5567
.L2113:
	imull	$-1764103177, %eax, %edx
	cmpl	$240439, %edx
	jbe	.L5568
.L2114:
	imull	$-763106711, %eax, %edx
	cmpl	$240197, %edx
	jbe	.L5569
.L2115:
	imull	$-1212078133, %eax, %edx
	cmpl	$240063, %edx
	jbe	.L5570
.L2116:
	imull	$1432455439, %eax, %edx
	cmpl	$239902, %edx
	jbe	.L5571
.L2117:
	imull	$-2070380963, %eax, %edx
	cmpl	$239821, %edx
	jbe	.L5572
.L2118:
	imull	$393743303, %eax, %edx
	cmpl	$239794, %edx
	jbe	.L5573
.L2119:
	imull	$992197121, %eax, %edx
	cmpl	$239661, %edx
	jbe	.L5574
.L2120:
	imull	$762516651, %eax, %edx
	cmpl	$239634, %edx
	jbe	.L5575
.L2121:
	imull	$1690773561, %eax, %edx
	cmpl	$239554, %edx
	jbe	.L5576
.L2122:
	imull	$99120155, %eax, %edx
	cmpl	$239420, %edx
	jbe	.L5577
.L2123:
	imull	$1616143789, %eax, %edx
	cmpl	$239180, %edx
	jbe	.L5578
.L2124:
	imull	$-1133590121, %eax, %edx
	cmpl	$239154, %edx
	jbe	.L5579
.L2125:
	imull	$-21748485, %eax, %edx
	cmpl	$238994, %edx
	jbe	.L5580
.L2126:
	imull	$-634796023, %eax, %edx
	cmpl	$238914, %edx
	jbe	.L5581
.L2127:
	imull	$-1379663595, %eax, %edx
	cmpl	$238861, %edx
	jbe	.L5582
.L2128:
	imull	$-52054421, %eax, %edx
	cmpl	$238781, %edx
	jbe	.L5583
.L2129:
	imull	$268360845, %eax, %edx
	cmpl	$238755, %edx
	jbe	.L5584
.L2130:
	imull	$710065653, %eax, %edx
	cmpl	$238437, %edx
	jbe	.L5585
.L2131:
	imull	$508511177, %eax, %edx
	cmpl	$238067, %edx
	jbe	.L5586
.L2132:
	imull	$-1236621133, %eax, %edx
	cmpl	$238040, %edx
	jbe	.L5587
.L2133:
	imull	$435517823, %eax, %edx
	cmpl	$237987, %edx
	jbe	.L5588
.L2134:
	imull	$1623849345, %eax, %edx
	cmpl	$237961, %edx
	jbe	.L5589
.L2135:
	imull	$-539397853, %eax, %edx
	cmpl	$237829, %edx
	jbe	.L5590
.L2136:
	imull	$-1221596091, %eax, %edx
	cmpl	$237803, %edx
	jbe	.L5591
.L2137:
	imull	$116420533, %eax, %edx
	cmpl	$237592, %edx
	jbe	.L5592
.L2138:
	imull	$-130826855, %eax, %edx
	cmpl	$237435, %edx
	jbe	.L5593
.L2139:
	imull	$-1800388015, %eax, %edx
	cmpl	$237330, %edx
	jbe	.L5594
.L2140:
	imull	$-1181181193, %eax, %edx
	cmpl	$237042, %edx
	jbe	.L5595
.L2141:
	imull	$-1419725959, %eax, %edx
	cmpl	$237016, %edx
	jbe	.L5596
.L2142:
	imull	$-40042449, %eax, %edx
	cmpl	$236937, %edx
	jbe	.L5597
.L2143:
	imull	$2111832411, %eax, %edx
	cmpl	$236885, %edx
	jbe	.L5598
.L2144:
	imull	$426820221, %eax, %edx
	cmpl	$236859, %edx
	jbe	.L5599
.L2145:
	imull	$1012725023, %eax, %edx
	cmpl	$236728, %edx
	jbe	.L5600
.L2146:
	imull	$-1217329427, %eax, %edx
	cmpl	$236650, %edx
	jbe	.L5601
.L2147:
	imull	$-632579255, %eax, %edx
	cmpl	$236389, %edx
	jbe	.L5602
.L2148:
	imull	$1568828877, %eax, %edx
	cmpl	$236233, %edx
	jbe	.L5603
.L2149:
	imull	$2003814383, %eax, %edx
	cmpl	$236103, %edx
	jbe	.L5604
.L2150:
	imull	$-574660441, %eax, %edx
	cmpl	$236000, %edx
	jbe	.L5605
.L2151:
	imull	$-1224269685, %eax, %edx
	cmpl	$235844, %edx
	jbe	.L5606
.L2152:
	imull	$-690797287, %eax, %edx
	cmpl	$235766, %edx
	jbe	.L5607
.L2153:
	imull	$-1721475121, %eax, %edx
	cmpl	$235689, %edx
	jbe	.L5608
.L2154:
	imull	$1658000157, %eax, %edx
	cmpl	$235611, %edx
	jbe	.L5609
.L2155:
	imull	$-470649079, %eax, %edx
	cmpl	$235560, %edx
	jbe	.L5610
.L2156:
	imull	$-1264416157, %eax, %edx
	cmpl	$235327, %edx
	jbe	.L5611
.L2157:
	imull	$-1835120251, %eax, %edx
	cmpl	$235301, %edx
	jbe	.L5612
.L2158:
	imull	$1475961265, %eax, %edx
	cmpl	$235250, %edx
	jbe	.L5613
.L2159:
	imull	$1987265781, %eax, %edx
	cmpl	$235095, %edx
	jbe	.L5614
.L2160:
	imull	$500496271, %eax, %edx
	cmpl	$234864, %edx
	jbe	.L5615
.L2161:
	imull	$-688547439, %eax, %edx
	cmpl	$234838, %edx
	jbe	.L5616
.L2162:
	imull	$-1789941291, %eax, %edx
	cmpl	$234684, %edx
	jbe	.L5617
.L2163:
	imull	$-1904312533, %eax, %edx
	cmpl	$234607, %edx
	jbe	.L5618
.L2164:
	imull	$2064567863, %eax, %edx
	cmpl	$234556, %edx
	jbe	.L5619
.L2165:
	imull	$-817340743, %eax, %edx
	cmpl	$234531, %edx
	jbe	.L5620
.L2166:
	imull	$1163664553, %eax, %edx
	cmpl	$234326, %edx
	jbe	.L5621
.L2167:
	imull	$453593133, %eax, %edx
	cmpl	$234173, %edx
	jbe	.L5622
.L2168:
	imull	$1740874065, %eax, %edx
	cmpl	$234019, %edx
	jbe	.L5623
.L2169:
	imull	$-848844737, %eax, %edx
	cmpl	$233841, %edx
	jbe	.L5624
.L2170:
	imull	$-276340501, %eax, %edx
	cmpl	$233790, %edx
	jbe	.L5625
.L2171:
	imull	$1948263907, %eax, %edx
	cmpl	$233688, %edx
	jbe	.L5626
.L2172:
	imull	$1010649205, %eax, %edx
	cmpl	$233460, %edx
	jbe	.L5627
.L2173:
	imull	$-622969823, %eax, %edx
	cmpl	$233409, %edx
	jbe	.L5628
.L2174:
	imull	$908537317, %eax, %edx
	cmpl	$233257, %edx
	jbe	.L5629
.L2175:
	imull	$134720307, %eax, %edx
	cmpl	$233080, %edx
	jbe	.L5630
.L2176:
	imull	$339720193, %eax, %edx
	cmpl	$233004, %edx
	jbe	.L5631
.L2177:
	imull	$-1952406089, %eax, %edx
	cmpl	$232928, %edx
	jbe	.L5632
.L2178:
	imull	$1194197923, %eax, %edx
	cmpl	$232877, %edx
	jbe	.L5633
.L2179:
	imull	$1887355419, %eax, %edx
	cmpl	$232776, %edx
	jbe	.L5634
.L2180:
	imull	$-919170007, %eax, %edx
	cmpl	$232701, %edx
	jbe	.L5635
.L2181:
	imull	$-604194251, %eax, %edx
	cmpl	$232650, %edx
	jbe	.L5636
.L2182:
	imull	$1088557265, %eax, %edx
	cmpl	$232399, %edx
	jbe	.L5637
.L2183:
	imull	$270569237, %eax, %edx
	cmpl	$232248, %edx
	jbe	.L5638
.L2184:
	imull	$-1058479753, %eax, %edx
	cmpl	$232122, %edx
	jbe	.L5639
.L2185:
	imull	$-47549187, %eax, %edx
	cmpl	$231947, %edx
	jbe	.L5640
.L2186:
	imull	$1063944169, %eax, %edx
	cmpl	$231897, %edx
	jbe	.L5641
.L2187:
	imull	$2122557395, %eax, %edx
	cmpl	$231872, %edx
	jbe	.L5642
.L2188:
	imull	$146416707, %eax, %edx
	cmpl	$231672, %edx
	jbe	.L5643
.L2189:
	imull	$1931936101, %eax, %edx
	cmpl	$231647, %edx
	jbe	.L5644
.L2190:
	imull	$487301577, %eax, %edx
	cmpl	$231497, %edx
	jbe	.L5645
.L2191:
	imull	$1033352999, %eax, %edx
	cmpl	$231123, %edx
	jbe	.L5646
.L2192:
	imull	$-1597874797, %eax, %edx
	cmpl	$231073, %edx
	jbe	.L5647
.L2193:
	imull	$-1794401439, %eax, %edx
	cmpl	$230999, %edx
	jbe	.L5648
.L2194:
	imull	$1445805449, %eax, %edx
	cmpl	$230701, %edx
	jbe	.L5649
.L2195:
	imull	$1539892229, %eax, %edx
	cmpl	$230453, %edx
	jbe	.L5650
.L2196:
	imull	$1683371245, %eax, %edx
	cmpl	$230157, %edx
	jbe	.L5651
.L2197:
	imull	$1188816399, %eax, %edx
	cmpl	$230034, %edx
	jbe	.L5652
.L2198:
	imull	$564721863, %eax, %edx
	cmpl	$229935, %edx
	jbe	.L5653
.L2199:
	imull	$-2086704725, %eax, %edx
	cmpl	$229787, %edx
	jbe	.L5654
.L2200:
	imull	$2039655877, %eax, %edx
	cmpl	$229665, %edx
	jbe	.L5655
.L2201:
	imull	$637600553, %eax, %edx
	cmpl	$229517, %edx
	jbe	.L5656
.L2202:
	imull	$-1002442017, %eax, %edx
	cmpl	$229444, %edx
	jbe	.L5657
.L2203:
	imull	$-33935997, %eax, %edx
	cmpl	$229297, %edx
	jbe	.L5658
.L2204:
	imull	$-49038201, %eax, %edx
	cmpl	$229150, %edx
	jbe	.L5659
.L2205:
	imull	$1339414037, %eax, %edx
	cmpl	$229077, %edx
	jbe	.L5660
.L2206:
	imull	$-1546985075, %eax, %edx
	cmpl	$228979, %edx
	jbe	.L5661
.L2207:
	imull	$-1999803395, %eax, %edx
	cmpl	$228784, %edx
	jbe	.L5662
.L2208:
	imull	$-1179418549, %eax, %edx
	cmpl	$228613, %edx
	jbe	.L5663
.L2209:
	imull	$1589958361, %eax, %edx
	cmpl	$228540, %edx
	jbe	.L5664
.L2210:
	imull	$-36558747, %eax, %edx
	cmpl	$228492, %edx
	jbe	.L5665
.L2211:
	imull	$31065019, %eax, %edx
	cmpl	$228419, %edx
	jbe	.L5666
.L2212:
	imull	$243713575, %eax, %edx
	cmpl	$227982, %edx
	jbe	.L5667
.L2213:
	imull	$-1386714877, %eax, %edx
	cmpl	$227740, %edx
	jbe	.L2214
.L2216:
	cmpl	$356039160, %eax
	jbe	.L225
	imull	$1184308381, %eax, %edx
	cmpl	$227620, %edx
	jbe	.L5668
.L2217:
	imull	$756545115, %eax, %edx
	cmpl	$227258, %edx
	jbe	.L5669
.L2218:
	imull	$-626609633, %eax, %edx
	cmpl	$227114, %edx
	jbe	.L5670
.L2219:
	imull	$493468193, %eax, %edx
	cmpl	$227090, %edx
	jbe	.L5671
.L2220:
	imull	$1114098669, %eax, %edx
	cmpl	$227042, %edx
	jbe	.L5672
.L2221:
	imull	$-74008105, %eax, %edx
	cmpl	$227018, %edx
	jbe	.L5673
.L2222:
	imull	$972697771, %eax, %edx
	cmpl	$226683, %edx
	jbe	.L5674
.L2223:
	imull	$-782015249, %eax, %edx
	cmpl	$226539, %edx
	jbe	.L5675
.L2224:
	imull	$-804075467, %eax, %edx
	cmpl	$226372, %edx
	jbe	.L5676
.L2225:
	imull	$-2060470901, %eax, %edx
	cmpl	$226301, %edx
	jbe	.L5677
.L2226:
	imull	$-2022145015, %eax, %edx
	cmpl	$226039, %edx
	jbe	.L5678
.L2227:
	imull	$-173750847, %eax, %edx
	cmpl	$225943, %edx
	jbe	.L5679
.L2228:
	imull	$918042765, %eax, %edx
	cmpl	$225896, %edx
	jbe	.L5680
.L2229:
	imull	$-573685401, %eax, %edx
	cmpl	$225682, %edx
	jbe	.L5681
.L2230:
	imull	$-1737434635, %eax, %edx
	cmpl	$225611, %edx
	jbe	.L5682
.L2231:
	imull	$240325187, %eax, %edx
	cmpl	$225445, %edx
	jbe	.L5683
.L2232:
	imull	$-1704788267, %eax, %edx
	cmpl	$225232, %edx
	jbe	.L5684
.L2233:
	imull	$-267520639, %eax, %edx
	cmpl	$225185, %edx
	jbe	.L5685
.L2234:
	imull	$-780248265, %eax, %edx
	cmpl	$225114, %edx
	jbe	.L5686
.L2235:
	imull	$-1923855431, %eax, %edx
	cmpl	$225091, %edx
	jbe	.L5687
.L2236:
	imull	$627807343, %eax, %edx
	cmpl	$225020, %edx
	jbe	.L5688
.L2237:
	imull	$1011465809, %eax, %edx
	cmpl	$224620, %edx
	jbe	.L5689
.L2238:
	imull	$11220459, %eax, %edx
	cmpl	$224409, %edx
	jbe	.L5690
.L2239:
	imull	$-1457609715, %eax, %edx
	cmpl	$224385, %edx
	jbe	.L5691
.L2240:
	imull	$-1996710275, %eax, %edx
	cmpl	$224198, %edx
	jbe	.L5692
.L2241:
	imull	$146579795, %eax, %edx
	cmpl	$224128, %edx
	jbe	.L5693
.L2242:
	imull	$-532700443, %eax, %edx
	cmpl	$223917, %edx
	jbe	.L5694
.L2243:
	imull	$1773020175, %eax, %edx
	cmpl	$223894, %edx
	jbe	.L5695
.L2244:
	imull	$906310327, %eax, %edx
	cmpl	$223614, %edx
	jbe	.L5696
.L2245:
	imull	$-1370249053, %eax, %edx
	cmpl	$223568, %edx
	jbe	.L5697
.L2246:
	imull	$13859781, %eax, %edx
	cmpl	$223544, %edx
	jbe	.L5698
.L2247:
	imull	$2091726619, %eax, %edx
	cmpl	$223475, %edx
	jbe	.L5699
.L2248:
	imull	$-1778421537, %eax, %edx
	cmpl	$223335, %edx
	jbe	.L5700
.L2249:
	imull	$351197357, %eax, %edx
	cmpl	$223265, %edx
	jbe	.L5701
.L2250:
	imull	$1920675281, %eax, %edx
	cmpl	$223126, %edx
	jbe	.L5702
.L2251:
	imull	$475682291, %eax, %edx
	cmpl	$223010, %edx
	jbe	.L5703
.L2252:
	imull	$258808171, %eax, %edx
	cmpl	$222918, %edx
	jbe	.L5704
.L2253:
	imull	$214603513, %eax, %edx
	cmpl	$222848, %edx
	jbe	.L5705
.L2254:
	imull	$27610345, %eax, %edx
	cmpl	$222664, %edx
	jbe	.L5706
.L2255:
	imull	$170454637, %eax, %edx
	cmpl	$222525, %edx
	jbe	.L5707
.L2256:
	imull	$282490469, %eax, %edx
	cmpl	$222433, %edx
	jbe	.L5708
.L2257:
	imull	$537787975, %eax, %edx
	cmpl	$222318, %edx
	jbe	.L5709
.L2258:
	imull	$990377293, %eax, %edx
	cmpl	$222157, %edx
	jbe	.L5710
.L2259:
	imull	$1131106341, %eax, %edx
	cmpl	$221698, %edx
	jbe	.L5711
.L2260:
	imull	$1640061819, %eax, %edx
	cmpl	$221629, %edx
	jbe	.L5712
.L2261:
	imull	$-264598883, %eax, %edx
	cmpl	$221607, %edx
	jbe	.L5713
.L2262:
	imull	$-1863138957, %eax, %edx
	cmpl	$221538, %edx
	jbe	.L5714
.L2263:
	imull	$106538047, %eax, %edx
	cmpl	$221492, %edx
	jbe	.L5715
.L2264:
	imull	$-231538205, %eax, %edx
	cmpl	$221355, %edx
	jbe	.L5716
.L2265:
	imull	$2093843561, %eax, %edx
	cmpl	$221196, %edx
	jbe	.L5717
.L2266:
	imull	$1895261301, %eax, %edx
	cmpl	$221150, %edx
	jbe	.L5718
.L2267:
	imull	$-1243402209, %eax, %edx
	cmpl	$221127, %edx
	jbe	.L5719
.L2268:
	imull	$-687124021, %eax, %edx
	cmpl	$221082, %edx
	jbe	.L5720
.L2269:
	imull	$264829421, %eax, %edx
	cmpl	$221059, %edx
	jbe	.L5721
.L2270:
	imull	$459488345, %eax, %edx
	cmpl	$221014, %edx
	jbe	.L5722
.L2271:
	imull	$-223132399, %eax, %edx
	cmpl	$220923, %edx
	jbe	.L5723
.L2272:
	imull	$-193468985, %eax, %edx
	cmpl	$220855, %edx
	jbe	.L5724
.L2273:
	imull	$1452258305, %eax, %edx
	cmpl	$220741, %edx
	jbe	.L5725
.L2274:
	imull	$1550672311, %eax, %edx
	cmpl	$220673, %edx
	jbe	.L5726
.L2275:
	imull	$749396677, %eax, %edx
	cmpl	$220605, %edx
	jbe	.L5727
.L2276:
	imull	$1836131055, %eax, %edx
	cmpl	$220582, %edx
	jbe	.L5728
.L2277:
	imull	$-164945091, %eax, %edx
	cmpl	$220514, %edx
	jbe	.L5729
.L2278:
	imull	$-1463767533, %eax, %edx
	cmpl	$220446, %edx
	jbe	.L5730
.L2279:
	imull	$1931622369, %eax, %edx
	cmpl	$220379, %edx
	jbe	.L5731
.L2280:
	imull	$-1070603355, %eax, %edx
	cmpl	$220243, %edx
	jbe	.L5732
.L2281:
	imull	$-204763397, %eax, %edx
	cmpl	$220175, %edx
	jbe	.L5733
.L2282:
	imull	$-1560666781, %eax, %edx
	cmpl	$219905, %edx
	jbe	.L5734
.L2283:
	imull	$1114788093, %eax, %edx
	cmpl	$219792, %edx
	jbe	.L5735
.L2284:
	imull	$-524591257, %eax, %edx
	cmpl	$219770, %edx
	jbe	.L5736
.L2285:
	imull	$-71608415, %eax, %edx
	cmpl	$219657, %edx
	jbe	.L5737
.L2286:
	imull	$-978055337, %eax, %edx
	cmpl	$219590, %edx
	jbe	.L5738
.L2287:
	imull	$-403359557, %eax, %edx
	cmpl	$219455, %edx
	jbe	.L5739
.L2288:
	imull	$-1931715127, %eax, %edx
	cmpl	$219388, %edx
	jbe	.L5740
.L2289:
	imull	$134443903, %eax, %edx
	cmpl	$219321, %edx
	jbe	.L5741
.L2290:
	imull	$-2080090555, %eax, %edx
	cmpl	$219164, %edx
	jbe	.L5742
.L2291:
	imull	$-1247759973, %eax, %edx
	cmpl	$219097, %edx
	jbe	.L5743
.L2292:
	imull	$-2123937879, %eax, %edx
	cmpl	$219030, %edx
	jbe	.L5744
.L2293:
	imull	$1073250309, %eax, %edx
	cmpl	$218451, %edx
	jbe	.L5745
.L2294:
	imull	$1575614241, %eax, %edx
	cmpl	$218229, %edx
	jbe	.L5746
.L2295:
	imull	$-230816041, %eax, %edx
	cmpl	$218162, %edx
	jbe	.L5747
.L2296:
	imull	$196682769, %eax, %edx
	cmpl	$218051, %edx
	jbe	.L5748
.L2297:
	imull	$-1248220101, %eax, %edx
	cmpl	$218029, %edx
	jbe	.L5749
.L2298:
	imull	$2088972373, %eax, %edx
	cmpl	$217919, %edx
	jbe	.L5750
.L2299:
	imull	$103905229, %eax, %edx
	cmpl	$217830, %edx
	jbe	.L5751
.L2300:
	imull	$-538639889, %eax, %edx
	cmpl	$217720, %edx
	jbe	.L5752
.L2301:
	imull	$-290044653, %eax, %edx
	cmpl	$217587, %edx
	jbe	.L5753
.L2302:
	imull	$1233408663, %eax, %edx
	cmpl	$217455, %edx
	jbe	.L5754
.L2303:
	imull	$-986931431, %eax, %edx
	cmpl	$217433, %edx
	jbe	.L5755
.L2304:
	imull	$759699919, %eax, %edx
	cmpl	$217367, %edx
	jbe	.L5756
.L2305:
	imull	$2045015547, %eax, %edx
	cmpl	$217323, %edx
	jbe	.L5757
.L2306:
	imull	$1176191681, %eax, %edx
	cmpl	$217169, %edx
	jbe	.L5758
.L2307:
	imull	$1756568497, %eax, %edx
	cmpl	$216994, %edx
	jbe	.L5759
.L2308:
	imull	$-1389286679, %eax, %edx
	cmpl	$216906, %edx
	jbe	.L5760
.L2309:
	imull	$-1220010899, %eax, %edx
	cmpl	$216775, %edx
	jbe	.L5761
.L2310:
	imull	$-1467123901, %eax, %edx
	cmpl	$216709, %edx
	jbe	.L5762
.L2311:
	imull	$-619318655, %eax, %edx
	cmpl	$216469, %edx
	jbe	.L5763
.L2312:
	imull	$-654104277, %eax, %edx
	cmpl	$216447, %edx
	jbe	.L5764
.L2313:
	imull	$231914821, %eax, %edx
	cmpl	$216338, %edx
	jbe	.L5765
.L2314:
	imull	$174298557, %eax, %edx
	cmpl	$216251, %edx
	jbe	.L5766
.L2315:
	imull	$-378974061, %eax, %edx
	cmpl	$216186, %edx
	jbe	.L5767
.L2316:
	imull	$-1681794223, %eax, %edx
	cmpl	$215946, %edx
	jbe	.L5768
.L2317:
	imull	$-999085701, %eax, %edx
	cmpl	$215925, %edx
	jbe	.L5769
.L2318:
	imull	$-1137746823, %eax, %edx
	cmpl	$215686, %edx
	jbe	.L5770
.L2319:
	imull	$-54552273, %eax, %edx
	cmpl	$215621, %edx
	jbe	.L5771
.L2320:
	imull	$-12716569, %eax, %edx
	cmpl	$215535, %edx
	jbe	.L5772
.L2321:
	imull	$-342313439, %eax, %edx
	cmpl	$215426, %edx
	jbe	.L5773
.L2322:
	imull	$878843877, %eax, %edx
	cmpl	$215297, %edx
	jbe	.L5774
.L2323:
	imull	$205055049, %eax, %edx
	cmpl	$215167, %edx
	jbe	.L5775
.L2324:
	imull	$-1492470477, %eax, %edx
	cmpl	$215146, %edx
	jbe	.L5776
.L2325:
	imull	$-1932767539, %eax, %edx
	cmpl	$215038, %edx
	jbe	.L5777
.L2326:
	imull	$2132757923, %eax, %edx
	cmpl	$214974, %edx
	jbe	.L5778
.L2327:
	imull	$76269991, %eax, %edx
	cmpl	$214845, %edx
	jbe	.L5779
.L2328:
	imull	$-123523543, %eax, %edx
	cmpl	$214823, %edx
	jbe	.L5780
.L2329:
	imull	$1299637301, %eax, %edx
	cmpl	$214780, %edx
	jbe	.L5781
.L2330:
	imull	$-343408509, %eax, %edx
	cmpl	$214630, %edx
	jbe	.L5782
.L2331:
	imull	$1775178781, %eax, %edx
	cmpl	$214523, %edx
	jbe	.L5783
.L2332:
	imull	$-1605974137, %eax, %edx
	cmpl	$214501, %edx
	jbe	.L5784
.L2333:
	imull	$799422741, %eax, %edx
	cmpl	$214437, %edx
	jbe	.L5785
.L2334:
	imull	$-282589009, %eax, %edx
	cmpl	$214244, %edx
	jbe	.L5786
.L2335:
	imull	$-1903614501, %eax, %edx
	cmpl	$214202, %edx
	jbe	.L5787
.L2336:
	imull	$-210006625, %eax, %edx
	cmpl	$214074, %edx
	jbe	.L5788
.L2337:
	imull	$1546710359, %eax, %edx
	cmpl	$213988, %edx
	jbe	.L5789
.L2338:
	imull	$-1645167671, %eax, %edx
	cmpl	$213796, %edx
	jbe	.L5790
.L2339:
	imull	$1234795085, %eax, %edx
	cmpl	$213669, %edx
	jbe	.L5791
.L2340:
	imull	$-817682141, %eax, %edx
	cmpl	$213605, %edx
	jbe	.L5792
.L2341:
	imull	$615854705, %eax, %edx
	cmpl	$213541, %edx
	jbe	.L5793
.L2342:
	imull	$821759165, %eax, %edx
	cmpl	$213499, %edx
	jbe	.L5794
.L2343:
	imull	$-830478445, %eax, %edx
	cmpl	$213435, %edx
	jbe	.L5795
.L2344:
	imull	$-1643178655, %eax, %edx
	cmpl	$213372, %edx
	jbe	.L5796
.L2345:
	imull	$-1203648433, %eax, %edx
	cmpl	$213223, %edx
	jbe	.L5797
.L2346:
	imull	$-2133520261, %eax, %edx
	cmpl	$213181, %edx
	jbe	.L5798
.L2347:
	imull	$1094365085, %eax, %edx
	cmpl	$213160, %edx
	jbe	.L5799
.L2348:
	imull	$338510145, %eax, %edx
	cmpl	$213033, %edx
	jbe	.L5800
.L2349:
	imull	$1340886533, %eax, %edx
	cmpl	$212906, %edx
	jbe	.L5801
.L2350:
	imull	$-1782527439, %eax, %edx
	cmpl	$212864, %edx
	jbe	.L5802
.L2351:
	imull	$1497269479, %eax, %edx
	cmpl	$212801, %edx
	jbe	.L5803
.L2352:
	imull	$351234393, %eax, %edx
	cmpl	$212611, %edx
	jbe	.L5804
.L2353:
	imull	$-703755213, %eax, %edx
	cmpl	$212422, %edx
	jbe	.L5805
.L2354:
	imull	$-998641993, %eax, %edx
	cmpl	$212296, %edx
	jbe	.L5806
.L2355:
	imull	$423489337, %eax, %edx
	cmpl	$212275, %edx
	jbe	.L5807
.L2356:
	imull	$-2045141719, %eax, %edx
	cmpl	$212107, %edx
	jbe	.L5808
.L2357:
	imull	$715863213, %eax, %edx
	cmpl	$211981, %edx
	jbe	.L5809
.L2358:
	imull	$-128198491, %eax, %edx
	cmpl	$211898, %edx
	jbe	.L5810
.L2359:
	imull	$266543295, %eax, %edx
	cmpl	$211710, %edx
	jbe	.L5811
.L2360:
	imull	$341955321, %eax, %edx
	cmpl	$211606, %edx
	jbe	.L5812
.L2361:
	imull	$291220043, %eax, %edx
	cmpl	$211335, %edx
	jbe	.L5813
.L2362:
	imull	$1413766231, %eax, %edx
	cmpl	$211293, %edx
	jbe	.L5814
.L2363:
	imull	$93786725, %eax, %edx
	cmpl	$211231, %edx
	jbe	.L5815
.L2364:
	imull	$1846069469, %eax, %edx
	cmpl	$211148, %edx
	jbe	.L5816
.L2365:
	imull	$-879806541, %eax, %edx
	cmpl	$211086, %edx
	jbe	.L5817
.L2366:
	imull	$1825566849, %eax, %edx
	cmpl	$211023, %edx
	jbe	.L5818
.L2367:
	imull	$-697085619, %eax, %edx
	cmpl	$210982, %edx
	jbe	.L5819
.L2368:
	imull	$1884309047, %eax, %edx
	cmpl	$210961, %edx
	jbe	.L5820
.L2369:
	imull	$-2085596815, %eax, %edx
	cmpl	$210858, %edx
	jbe	.L5821
.L2370:
	imull	$-41287635, %eax, %edx
	cmpl	$210651, %edx
	jbe	.L5822
.L2371:
	imull	$-65289063, %eax, %edx
	cmpl	$210609, %edx
	jbe	.L5823
.L2372:
	imull	$-72849585, %eax, %edx
	cmpl	$210547, %edx
	jbe	.L5824
.L2373:
	imull	$-1177764345, %eax, %edx
	cmpl	$210465, %edx
	jbe	.L5825
.L2374:
	imull	$-449045133, %eax, %edx
	cmpl	$210424, %edx
	jbe	.L5826
.L2375:
	imull	$1619941167, %eax, %edx
	cmpl	$210218, %edx
	jbe	.L5827
.L2376:
	imull	$43073641, %eax, %edx
	cmpl	$210115, %edx
	jbe	.L5828
.L2377:
	imull	$634066003, %eax, %edx
	cmpl	$210094, %edx
	jbe	.L5829
.L2378:
	imull	$1575191893, %eax, %edx
	cmpl	$209745, %edx
	jbe	.L5830
.L2379:
	imull	$-419450881, %eax, %edx
	cmpl	$209725, %edx
	jbe	.L5831
.L2380:
	imull	$1765333675, %eax, %edx
	cmpl	$209684, %edx
	jbe	.L5832
.L2381:
	imull	$1041959443, %eax, %edx
	cmpl	$209439, %edx
	jbe	.L5833
.L2382:
	imull	$1992618549, %eax, %edx
	cmpl	$209418, %edx
	jbe	.L5834
.L2383:
	imull	$-1135850471, %eax, %edx
	cmpl	$209296, %edx
	jbe	.L5835
.L2384:
	imull	$-640908771, %eax, %edx
	cmpl	$209173, %edx
	jbe	.L5836
.L2385:
	imull	$-690774081, %eax, %edx
	cmpl	$209072, %edx
	jbe	.L5837
.L2386:
	imull	$1169834637, %eax, %edx
	cmpl	$209011, %edx
	jbe	.L5838
.L2387:
	imull	$394156407, %eax, %edx
	cmpl	$208990, %edx
	jbe	.L5839
.L2388:
	imull	$2030203867, %eax, %edx
	cmpl	$208868, %edx
	jbe	.L5840
.L2389:
	imull	$1731293329, %eax, %edx
	cmpl	$208564, %edx
	jbe	.L5841
.L2390:
	imull	$-1300854457, %eax, %edx
	cmpl	$208503, %edx
	jbe	.L5842
.L2391:
	imull	$-1312391637, %eax, %edx
	cmpl	$208382, %edx
	jbe	.L5843
.L2392:
	imull	$1828801947, %eax, %edx
	cmpl	$208220, %edx
	jbe	.L5844
.L2393:
	imull	$-1215509665, %eax, %edx
	cmpl	$208099, %edx
	jbe	.L5845
.L2394:
	imull	$-126512287, %eax, %edx
	cmpl	$208079, %edx
	jbe	.L2395
.L2397:
	cmpl	$426959568, %eax
	jbe	.L225
	imull	$1035963655, %eax, %edx
	cmpl	$207857, %edx
	jbe	.L5846
.L2398:
	imull	$-1089681031, %eax, %edx
	cmpl	$207676, %edx
	jbe	.L5847
.L2399:
	imull	$-1275434883, %eax, %edx
	cmpl	$207556, %edx
	jbe	.L5848
.L2400:
	imull	$282293451, %eax, %edx
	cmpl	$207416, %edx
	jbe	.L5849
.L2401:
	imull	$-1332835099, %eax, %edx
	cmpl	$207316, %edx
	jbe	.L5850
.L2402:
	imull	$-889922033, %eax, %edx
	cmpl	$207296, %edx
	jbe	.L5851
.L2403:
	imull	$-1961543117, %eax, %edx
	cmpl	$207176, %edx
	jbe	.L5852
.L2404:
	imull	$1149783223, %eax, %edx
	cmpl	$207056, %edx
	jbe	.L5853
.L2405:
	imull	$2005988003, %eax, %edx
	cmpl	$207016, %edx
	jbe	.L5854
.L2406:
	imull	$705029573, %eax, %edx
	cmpl	$206996, %edx
	jbe	.L5855
.L2407:
	imull	$-1883717647, %eax, %edx
	cmpl	$206956, %edx
	jbe	.L5856
.L2408:
	imull	$1383724711, %eax, %edx
	cmpl	$206896, %edx
	jbe	.L5857
.L2409:
	imull	$1518364299, %eax, %edx
	cmpl	$206777, %edx
	jbe	.L5858
.L2410:
	imull	$-1358601555, %eax, %edx
	cmpl	$206757, %edx
	jbe	.L5859
.L2411:
	imull	$1150957853, %eax, %edx
	cmpl	$206598, %edx
	jbe	.L5860
.L2412:
	imull	$1076889719, %eax, %edx
	cmpl	$206419, %edx
	jbe	.L5861
.L2413:
	imull	$-1944489735, %eax, %edx
	cmpl	$206399, %edx
	jbe	.L5862
.L2414:
	imull	$-105885807, %eax, %edx
	cmpl	$206003, %edx
	jbe	.L5863
.L2415:
	imull	$411849, %eax, %edx
	cmpl	$205924, %edx
	jbe	.L5864
.L2416:
	imull	$-1099205447, %eax, %edx
	cmpl	$205766, %edx
	jbe	.L5865
.L2417:
	imull	$500280687, %eax, %edx
	cmpl	$205707, %edx
	jbe	.L5866
.L2418:
	imull	$-646496729, %eax, %edx
	cmpl	$205628, %edx
	jbe	.L5867
.L2419:
	imull	$1527501409, %eax, %edx
	cmpl	$205530, %edx
	jbe	.L5868
.L2420:
	imull	$33909259, %eax, %edx
	cmpl	$205510, %edx
	jbe	.L5869
.L2421:
	imull	$466830871, %eax, %edx
	cmpl	$205471, %edx
	jbe	.L5870
.L2422:
	imull	$1932027017, %eax, %edx
	cmpl	$205294, %edx
	jbe	.L5871
.L2423:
	imull	$-1765884351, %eax, %edx
	cmpl	$205216, %edx
	jbe	.L5872
.L2424:
	imull	$186862563, %eax, %edx
	cmpl	$205118, %edx
	jbe	.L5873
.L2425:
	imull	$766848603, %eax, %edx
	cmpl	$205039, %edx
	jbe	.L5874
.L2426:
	imull	$1500031519, %eax, %edx
	cmpl	$204922, %edx
	jbe	.L5875
.L2427:
	imull	$380468171, %eax, %edx
	cmpl	$204883, %edx
	jbe	.L5876
.L2428:
	imull	$188944989, %eax, %edx
	cmpl	$204707, %edx
	jbe	.L5877
.L2429:
	imull	$1810874311, %eax, %edx
	cmpl	$204687, %edx
	jbe	.L5878
.L2430:
	imull	$-780215239, %eax, %edx
	cmpl	$204512, %edx
	jbe	.L5879
.L2431:
	imull	$534136859, %eax, %edx
	cmpl	$204415, %edx
	jbe	.L5880
.L2432:
	imull	$586411325, %eax, %edx
	cmpl	$204395, %edx
	jbe	.L5881
.L2433:
	imull	$153676329, %eax, %edx
	cmpl	$204356, %edx
	jbe	.L5882
.L2434:
	imull	$-1974716397, %eax, %edx
	cmpl	$204337, %edx
	jbe	.L5883
.L2435:
	imull	$1514056159, %eax, %edx
	cmpl	$204298, %edx
	jbe	.L5884
.L2436:
	imull	$583662999, %eax, %edx
	cmpl	$204220, %edx
	jbe	.L5885
.L2437:
	imull	$533531243, %eax, %edx
	cmpl	$203949, %edx
	jbe	.L5886
.L2438:
	imull	$1275785357, %eax, %edx
	cmpl	$203929, %edx
	jbe	.L5887
.L2439:
	imull	$30173027, %eax, %edx
	cmpl	$203871, %edx
	jbe	.L5888
.L2440:
	imull	$241947041, %eax, %edx
	cmpl	$203659, %edx
	jbe	.L5889
.L2441:
	imull	$-1526167707, %eax, %edx
	cmpl	$203543, %edx
	jbe	.L5890
.L2442:
	imull	$1162715835, %eax, %edx
	cmpl	$203485, %edx
	jbe	.L5891
.L2443:
	imull	$-1091179135, %eax, %edx
	cmpl	$203350, %edx
	jbe	.L5892
.L2444:
	imull	$-246047845, %eax, %edx
	cmpl	$203177, %edx
	jbe	.L5893
.L2445:
	imull	$-1589359321, %eax, %edx
	cmpl	$203138, %edx
	jbe	.L5894
.L2446:
	imull	$-524762187, %eax, %edx
	cmpl	$203081, %edx
	jbe	.L5895
.L2447:
	imull	$705643821, %eax, %edx
	cmpl	$203004, %edx
	jbe	.L5896
.L2448:
	imull	$-792913917, %eax, %edx
	cmpl	$202946, %edx
	jbe	.L5897
.L2449:
	imull	$1172092497, %eax, %edx
	cmpl	$202889, %edx
	jbe	.L5898
.L2450:
	imull	$2075796083, %eax, %edx
	cmpl	$202793, %edx
	jbe	.L5899
.L2451:
	imull	$205352427, %eax, %edx
	cmpl	$202717, %edx
	jbe	.L5900
.L2452:
	imull	$-2041786633, %eax, %edx
	cmpl	$202678, %edx
	jbe	.L5901
.L2453:
	imull	$-1254463623, %eax, %edx
	cmpl	$202659, %edx
	jbe	.L5902
.L2454:
	imull	$-1619699373, %eax, %edx
	cmpl	$202487, %edx
	jbe	.L5903
.L2455:
	imull	$1034427117, %eax, %edx
	cmpl	$202392, %edx
	jbe	.L5904
.L2456:
	imull	$1867957699, %eax, %edx
	cmpl	$202335, %edx
	jbe	.L5905
.L2457:
	imull	$1511435519, %eax, %edx
	cmpl	$202144, %edx
	jbe	.L5906
.L2458:
	imull	$530080829, %eax, %edx
	cmpl	$201935, %edx
	jbe	.L5907
.L2459:
	imull	$587007797, %eax, %edx
	cmpl	$201859, %edx
	jbe	.L5908
.L2460:
	imull	$523072651, %eax, %edx
	cmpl	$201802, %edx
	jbe	.L5909
.L2461:
	imull	$-1564590911, %eax, %edx
	cmpl	$201518, %edx
	jbe	.L5910
.L2462:
	imull	$-999143539, %eax, %edx
	cmpl	$201480, %edx
	jbe	.L5911
.L2463:
	imull	$-1552062857, %eax, %edx
	cmpl	$201461, %edx
	jbe	.L5912
.L2464:
	imull	$-1825104285, %eax, %edx
	cmpl	$201424, %edx
	jbe	.L5913
.L2465:
	imull	$1826986229, %eax, %edx
	cmpl	$201254, %edx
	jbe	.L5914
.L2466:
	imull	$1237567051, %eax, %edx
	cmpl	$201197, %edx
	jbe	.L5915
.L2467:
	imull	$73133185, %eax, %edx
	cmpl	$200915, %edx
	jbe	.L5916
.L2468:
	imull	$1423954731, %eax, %edx
	cmpl	$200896, %edx
	jbe	.L5917
.L2469:
	imull	$1715536439, %eax, %edx
	cmpl	$200858, %edx
	jbe	.L5918
.L2470:
	imull	$-1331598481, %eax, %edx
	cmpl	$200783, %edx
	jbe	.L5919
.L2471:
	imull	$1850105789, %eax, %edx
	cmpl	$200727, %edx
	jbe	.L5920
.L2472:
	imull	$1821462697, %eax, %edx
	cmpl	$200690, %edx
	jbe	.L5921
.L2473:
	imull	$473696351, %eax, %edx
	cmpl	$200633, %edx
	jbe	.L5922
.L2474:
	imull	$1497894659, %eax, %edx
	cmpl	$200521, %edx
	jbe	.L5923
.L2475:
	imull	$1978253961, %eax, %edx
	cmpl	$200390, %edx
	jbe	.L5924
.L2476:
	imull	$1110405203, %eax, %edx
	cmpl	$200073, %edx
	jbe	.L5925
.L2477:
	imull	$250328153, %eax, %edx
	cmpl	$199942, %edx
	jbe	.L5926
.L2478:
	imull	$1854749455, %eax, %edx
	cmpl	$199886, %edx
	jbe	.L5927
.L2479:
	imull	$1008041275, %eax, %edx
	cmpl	$199849, %edx
	jbe	.L5928
.L2480:
	imull	$887849053, %eax, %edx
	cmpl	$199830, %edx
	jbe	.L5929
.L2481:
	imull	$2049294131, %eax, %edx
	cmpl	$199775, %edx
	jbe	.L5930
.L2482:
	imull	$-1536185345, %eax, %edx
	cmpl	$199738, %edx
	jbe	.L5931
.L2483:
	imull	$-1198646587, %eax, %edx
	cmpl	$199608, %edx
	jbe	.L5932
.L2484:
	imull	$-242279183, %eax, %edx
	cmpl	$199570, %edx
	jbe	.L5933
.L2485:
	imull	$1157404187, %eax, %edx
	cmpl	$199552, %edx
	jbe	.L5934
.L2486:
	imull	$-1340618711, %eax, %edx
	cmpl	$199496, %edx
	jbe	.L5935
.L2487:
	imull	$-2009113059, %eax, %edx
	cmpl	$199237, %edx
	jbe	.L5936
.L2488:
	imull	$-141844089, %eax, %edx
	cmpl	$199219, %edx
	jbe	.L5937
.L2489:
	imull	$-53779213, %eax, %edx
	cmpl	$199182, %edx
	jbe	.L5938
.L2490:
	imull	$552975297, %eax, %edx
	cmpl	$199126, %edx
	jbe	.L5939
.L2491:
	imull	$-913056263, %eax, %edx
	cmpl	$199053, %edx
	jbe	.L5940
.L2492:
	imull	$826085339, %eax, %edx
	cmpl	$198960, %edx
	jbe	.L5941
.L2493:
	imull	$1658980605, %eax, %edx
	cmpl	$198942, %edx
	jbe	.L5942
.L2494:
	imull	$-610072673, %eax, %edx
	cmpl	$198850, %edx
	jbe	.L5943
.L2495:
	imull	$224481185, %eax, %edx
	cmpl	$198831, %edx
	jbe	.L5944
.L2496:
	imull	$-252200893, %eax, %edx
	cmpl	$198739, %edx
	jbe	.L5945
.L2497:
	imull	$1545655653, %eax, %edx
	cmpl	$198721, %edx
	jbe	.L5946
.L2498:
	imull	$1836641425, %eax, %edx
	cmpl	$198684, %edx
	jbe	.L5947
.L2499:
	imull	$-84522385, %eax, %edx
	cmpl	$198409, %edx
	jbe	.L5948
.L2500:
	imull	$-1575621519, %eax, %edx
	cmpl	$198391, %edx
	jbe	.L5949
.L2501:
	imull	$-1368337995, %eax, %edx
	cmpl	$198281, %edx
	jbe	.L5950
.L2502:
	imull	$-884240487, %eax, %edx
	cmpl	$198171, %edx
	jbe	.L5951
.L2503:
	imull	$-1415677317, %eax, %edx
	cmpl	$198079, %edx
	jbe	.L5952
.L2504:
	imull	$-1933833715, %eax, %edx
	cmpl	$197915, %edx
	jbe	.L5953
.L2505:
	imull	$1844741169, %eax, %edx
	cmpl	$197806, %edx
	jbe	.L5954
.L2506:
	imull	$-1942984929, %eax, %edx
	cmpl	$197678, %edx
	jbe	.L5955
.L2507:
	imull	$-663895207, %eax, %edx
	cmpl	$197587, %edx
	jbe	.L5956
.L2508:
	imull	$22918083, %eax, %edx
	cmpl	$197569, %edx
	jbe	.L5957
.L2509:
	imull	$1285074119, %eax, %edx
	cmpl	$197460, %edx
	jbe	.L5958
.L2510:
	imull	$1205954645, %eax, %edx
	cmpl	$197406, %edx
	jbe	.L5959
.L2511:
	imull	$-968030025, %eax, %edx
	cmpl	$197315, %edx
	jbe	.L5960
.L2512:
	imull	$900694469, %eax, %edx
	cmpl	$197261, %edx
	jbe	.L5961
.L2513:
	imull	$662371603, %eax, %edx
	cmpl	$197134, %edx
	jbe	.L5962
.L2514:
	imull	$580635287, %eax, %edx
	cmpl	$197025, %edx
	jbe	.L5963
.L2515:
	imull	$-312622717, %eax, %edx
	cmpl	$196989, %edx
	jbe	.L5964
.L2516:
	imull	$-756152055, %eax, %edx
	cmpl	$196863, %edx
	jbe	.L5965
.L2517:
	imull	$1539385877, %eax, %edx
	cmpl	$196827, %edx
	jbe	.L5966
.L2518:
	imull	$-1439587921, %eax, %edx
	cmpl	$196665, %edx
	jbe	.L5967
.L2519:
	imull	$-965733455, %eax, %edx
	cmpl	$196647, %edx
	jbe	.L5968
.L2520:
	imull	$-1976577325, %eax, %edx
	cmpl	$196557, %edx
	jbe	.L5969
.L2521:
	imull	$-715402165, %eax, %edx
	cmpl	$196485, %edx
	jbe	.L5970
.L2522:
	imull	$-564201897, %eax, %edx
	cmpl	$196449, %edx
	jbe	.L5971
.L2523:
	imull	$1580640655, %eax, %edx
	cmpl	$196377, %edx
	jbe	.L5972
.L2524:
	imull	$1524565193, %eax, %edx
	cmpl	$196287, %edx
	jbe	.L5973
.L2525:
	imull	$1400920909, %eax, %edx
	cmpl	$196179, %edx
	jbe	.L5974
.L2526:
	imull	$1363114535, %eax, %edx
	cmpl	$196018, %edx
	jbe	.L5975
.L2527:
	imull	$-1148510567, %eax, %edx
	cmpl	$195857, %edx
	jbe	.L5976
.L2528:
	imull	$-1434135727, %eax, %edx
	cmpl	$195786, %edx
	jbe	.L5977
.L2529:
	imull	$1940887559, %eax, %edx
	cmpl	$195732, %edx
	jbe	.L5978
.L2530:
	imull	$484824185, %eax, %edx
	cmpl	$195572, %edx
	jbe	.L5979
.L2531:
	imull	$697490025, %eax, %edx
	cmpl	$195430, %edx
	jbe	.L5980
.L2532:
	imull	$1445457367, %eax, %edx
	cmpl	$195305, %edx
	jbe	.L5981
.L2533:
	imull	$-2079633435, %eax, %edx
	cmpl	$195252, %edx
	jbe	.L5982
.L2534:
	imull	$-674608325, %eax, %edx
	cmpl	$195199, %edx
	jbe	.L5983
.L2535:
	imull	$2124558165, %eax, %edx
	cmpl	$195110, %edx
	jbe	.L5984
.L2536:
	imull	$1378944419, %eax, %edx
	cmpl	$194986, %edx
	jbe	.L5985
.L2537:
	imull	$-222439185, %eax, %edx
	cmpl	$194951, %edx
	jbe	.L5986
.L2538:
	imull	$-1656633027, %eax, %edx
	cmpl	$194898, %edx
	jbe	.L5987
.L2539:
	imull	$-2064367193, %eax, %edx
	cmpl	$194880, %edx
	jbe	.L5988
.L2540:
	imull	$1538132363, %eax, %edx
	cmpl	$194774, %edx
	jbe	.L5989
.L2541:
	imull	$-1096372017, %eax, %edx
	cmpl	$194668, %edx
	jbe	.L5990
.L2542:
	imull	$-1999465221, %eax, %edx
	cmpl	$194633, %edx
	jbe	.L5991
.L2543:
	imull	$-1306216439, %eax, %edx
	cmpl	$194580, %edx
	jbe	.L5992
.L2544:
	imull	$1858902463, %eax, %edx
	cmpl	$194527, %edx
	jbe	.L5993
.L2545:
	imull	$1379615587, %eax, %edx
	cmpl	$194421, %edx
	jbe	.L5994
.L2546:
	imull	$-1322724731, %eax, %edx
	cmpl	$194403, %edx
	jbe	.L5995
.L2547:
	imull	$2089496053, %eax, %edx
	cmpl	$194263, %edx
	jbe	.L5996
.L2548:
	imull	$385189279, %eax, %edx
	cmpl	$194245, %edx
	jbe	.L5997
.L2549:
	imull	$-1885297085, %eax, %edx
	cmpl	$194140, %edx
	jbe	.L5998
.L2550:
	imull	$1894296209, %eax, %edx
	cmpl	$194087, %edx
	jbe	.L5999
.L2551:
	imull	$1964394973, %eax, %edx
	cmpl	$194052, %edx
	jbe	.L6000
.L2552:
	imull	$-1068554197, %eax, %edx
	cmpl	$193929, %edx
	jbe	.L6001
.L2553:
	imull	$-111673415, %eax, %edx
	cmpl	$193877, %edx
	jbe	.L6002
.L2554:
	imull	$-1618584507, %eax, %edx
	cmpl	$193842, %edx
	jbe	.L6003
.L2555:
	imull	$-210106257, %eax, %edx
	cmpl	$193824, %edx
	jbe	.L6004
.L2556:
	imull	$2085396371, %eax, %edx
	cmpl	$193720, %edx
	jbe	.L6005
.L2557:
	imull	$2101706021, %eax, %edx
	cmpl	$193562, %edx
	jbe	.L6006
.L2558:
	imull	$-1479134639, %eax, %edx
	cmpl	$193528, %edx
	jbe	.L6007
.L2559:
	imull	$1667248765, %eax, %edx
	cmpl	$193214, %edx
	jbe	.L6008
.L2560:
	imull	$405036247, %eax, %edx
	cmpl	$193058, %edx
	jbe	.L6009
.L2561:
	imull	$-898780613, %eax, %edx
	cmpl	$192954, %edx
	jbe	.L6010
.L2562:
	imull	$-1687246593, %eax, %edx
	cmpl	$192850, %edx
	jbe	.L6011
.L2563:
	imull	$-695162623, %eax, %edx
	cmpl	$192832, %edx
	jbe	.L6012
.L2564:
	imull	$1864359373, %eax, %edx
	cmpl	$192798, %edx
	jbe	.L6013
.L2565:
	imull	$1745053367, %eax, %edx
	cmpl	$192780, %edx
	jbe	.L6014
.L2566:
	imull	$-681165661, %eax, %edx
	cmpl	$192746, %edx
	jbe	.L6015
.L2567:
	imull	$218303259, %eax, %edx
	cmpl	$192677, %edx
	jbe	.L6016
.L2568:
	imull	$1221879007, %eax, %edx
	cmpl	$192573, %edx
	jbe	.L6017
.L2569:
	imull	$-1722838901, %eax, %edx
	cmpl	$192538, %edx
	jbe	.L6018
.L2570:
	imull	$163586679, %eax, %edx
	cmpl	$192228, %edx
	jbe	.L6019
.L2571:
	imull	$-39011963, %eax, %edx
	cmpl	$192177, %edx
	jbe	.L6020
.L2572:
	imull	$-1506032481, %eax, %edx
	cmpl	$192022, %edx
	jbe	.L6021
.L2573:
	imull	$-805270367, %eax, %edx
	cmpl	$192005, %edx
	jbe	.L6022
.L2574:
	imull	$-369603995, %eax, %edx
	cmpl	$191902, %edx
	jbe	.L6023
.L2575:
	imull	$425833031, %eax, %edx
	cmpl	$191816, %edx
	jbe	.L2576
.L2578:
	cmpl	$501625608, %eax
	jbe	.L225
	imull	$-207873579, %eax, %edx
	cmpl	$191765, %edx
	jbe	.L6024
.L2579:
	imull	$-231911751, %eax, %edx
	cmpl	$191662, %edx
	jbe	.L6025
.L2580:
	imull	$469453921, %eax, %edx
	cmpl	$191457, %edx
	jbe	.L6026
.L2581:
	imull	$-1723843431, %eax, %edx
	cmpl	$191389, %edx
	jbe	.L6027
.L2582:
	imull	$-1307222193, %eax, %edx
	cmpl	$191338, %edx
	jbe	.L6028
.L2583:
	imull	$-346612067, %eax, %edx
	cmpl	$191287, %edx
	jbe	.L6029
.L2584:
	imull	$1441468173, %eax, %edx
	cmpl	$191150, %edx
	jbe	.L6030
.L2585:
	imull	$-1487314639, %eax, %edx
	cmpl	$191048, %edx
	jbe	.L6031
.L2586:
	imull	$2141657179, %eax, %edx
	cmpl	$191031, %edx
	jbe	.L6032
.L2587:
	imull	$1792544237, %eax, %edx
	cmpl	$190878, %edx
	jbe	.L6033
.L2588:
	imull	$2043787023, %eax, %edx
	cmpl	$190794, %edx
	jbe	.L6034
.L2589:
	imull	$814158507, %eax, %edx
	cmpl	$190624, %edx
	jbe	.L6035
.L2590:
	imull	$-2114996539, %eax, %edx
	cmpl	$190540, %edx
	jbe	.L6036
.L2591:
	imull	$-711223569, %eax, %edx
	cmpl	$190523, %edx
	jbe	.L6037
.L2592:
	imull	$1713682237, %eax, %edx
	cmpl	$190472, %edx
	jbe	.L6038
.L2593:
	imull	$552310679, %eax, %edx
	cmpl	$190320, %edx
	jbe	.L6039
.L2594:
	imull	$-243947901, %eax, %edx
	cmpl	$190286, %edx
	jbe	.L6040
.L2595:
	imull	$-1004816475, %eax, %edx
	cmpl	$190270, %edx
	jbe	.L6041
.L2596:
	imull	$1040835837, %eax, %edx
	cmpl	$189933, %edx
	jbe	.L6042
.L2597:
	imull	$436541395, %eax, %edx
	cmpl	$189883, %edx
	jbe	.L6043
.L2598:
	imull	$732314613, %eax, %edx
	cmpl	$189866, %edx
	jbe	.L6044
.L2599:
	imull	$-1861652123, %eax, %edx
	cmpl	$189732, %edx
	jbe	.L6045
.L2600:
	imull	$604243599, %eax, %edx
	cmpl	$189715, %edx
	jbe	.L6046
.L2601:
	imull	$25038011, %eax, %edx
	cmpl	$189681, %edx
	jbe	.L6047
.L2602:
	imull	$755615411, %eax, %edx
	cmpl	$189614, %edx
	jbe	.L6048
.L2603:
	imull	$-115004859, %eax, %edx
	cmpl	$189464, %edx
	jbe	.L6049
.L2604:
	imull	$1209575207, %eax, %edx
	cmpl	$189380, %edx
	jbe	.L6050
.L2605:
	imull	$-905897205, %eax, %edx
	cmpl	$189280, %edx
	jbe	.L6051
.L2606:
	imull	$-88749159, %eax, %edx
	cmpl	$189230, %edx
	jbe	.L6052
.L2607:
	imull	$-2060918269, %eax, %edx
	cmpl	$189213, %edx
	jbe	.L6053
.L2608:
	imull	$1911543197, %eax, %edx
	cmpl	$189130, %edx
	jbe	.L6054
.L2609:
	imull	$1147429525, %eax, %edx
	cmpl	$189064, %edx
	jbe	.L6055
.L2610:
	imull	$-1965541567, %eax, %edx
	cmpl	$189030, %edx
	jbe	.L6056
.L2611:
	imull	$-48568073, %eax, %edx
	cmpl	$188980, %edx
	jbe	.L6057
.L2612:
	imull	$186236763, %eax, %edx
	cmpl	$188881, %edx
	jbe	.L6058
.L2613:
	imull	$-1093525379, %eax, %edx
	cmpl	$188864, %edx
	jbe	.L6059
.L2614:
	imull	$977888031, %eax, %edx
	cmpl	$188781, %edx
	jbe	.L6060
.L2615:
	imull	$98277393, %eax, %edx
	cmpl	$188632, %edx
	jbe	.L6061
.L2616:
	imull	$-1387468471, %eax, %edx
	cmpl	$188565, %edx
	jbe	.L6062
.L2617:
	imull	$403613439, %eax, %edx
	cmpl	$188516, %edx
	jbe	.L6063
.L2618:
	imull	$454810027, %eax, %edx
	cmpl	$188483, %edx
	jbe	.L6064
.L2619:
	imull	$87191207, %eax, %edx
	cmpl	$188317, %edx
	jbe	.L6065
.L2620:
	imull	$1508727059, %eax, %edx
	cmpl	$188284, %edx
	jbe	.L6066
.L2621:
	imull	$-276141343, %eax, %edx
	cmpl	$188235, %edx
	jbe	.L6067
.L2622:
	imull	$-430943859, %eax, %edx
	cmpl	$187938, %edx
	jbe	.L6068
.L2623:
	imull	$1130719331, %eax, %edx
	cmpl	$187889, %edx
	jbe	.L6069
.L2624:
	imull	$-2036168827, %eax, %edx
	cmpl	$187873, %edx
	jbe	.L6070
.L2625:
	imull	$-1201298841, %eax, %edx
	cmpl	$187790, %edx
	jbe	.L6071
.L2626:
	imull	$1117438709, %eax, %edx
	cmpl	$187741, %edx
	jbe	.L6072
.L2627:
	imull	$1634266845, %eax, %edx
	cmpl	$187544, %edx
	jbe	.L6073
.L2628:
	imull	$1918082483, %eax, %edx
	cmpl	$187495, %edx
	jbe	.L6074
.L2629:
	imull	$122547385, %eax, %edx
	cmpl	$187381, %edx
	jbe	.L6075
.L2630:
	imull	$-1640502615, %eax, %edx
	cmpl	$187250, %edx
	jbe	.L6076
.L2631:
	imull	$-937131425, %eax, %edx
	cmpl	$187201, %edx
	jbe	.L6077
.L2632:
	imull	$-552186031, %eax, %edx
	cmpl	$187054, %edx
	jbe	.L6078
.L2633:
	imull	$-963248773, %eax, %edx
	cmpl	$187038, %edx
	jbe	.L6079
.L2634:
	imull	$614902165, %eax, %edx
	cmpl	$186957, %edx
	jbe	.L6080
.L2635:
	imull	$-381247695, %eax, %edx
	cmpl	$186794, %edx
	jbe	.L6081
.L2636:
	imull	$-1319503277, %eax, %edx
	cmpl	$186713, %edx
	jbe	.L6082
.L2637:
	imull	$-573197365, %eax, %edx
	cmpl	$186648, %edx
	jbe	.L6083
.L2638:
	imull	$-1283060135, %eax, %edx
	cmpl	$186599, %edx
	jbe	.L6084
.L2639:
	imull	$22014949, %eax, %edx
	cmpl	$186567, %edx
	jbe	.L6085
.L2640:
	imull	$1836836667, %eax, %edx
	cmpl	$186518, %edx
	jbe	.L6086
.L2641:
	imull	$315935325, %eax, %edx
	cmpl	$186502, %edx
	jbe	.L6087
.L2642:
	imull	$945530367, %eax, %edx
	cmpl	$186421, %edx
	jbe	.L6088
.L2643:
	imull	$2007213569, %eax, %edx
	cmpl	$186405, %edx
	jbe	.L6089
.L2644:
	imull	$1065125061, %eax, %edx
	cmpl	$186308, %edx
	jbe	.L6090
.L2645:
	imull	$-447621391, %eax, %edx
	cmpl	$186276, %edx
	jbe	.L6091
.L2646:
	imull	$-1090551781, %eax, %edx
	cmpl	$186259, %edx
	jbe	.L6092
.L2647:
	imull	$-814187097, %eax, %edx
	cmpl	$186227, %edx
	jbe	.L6093
.L2648:
	imull	$-528703009, %eax, %edx
	cmpl	$186163, %edx
	jbe	.L6094
.L2649:
	imull	$390586905, %eax, %edx
	cmpl	$186082, %edx
	jbe	.L6095
.L2650:
	imull	$-1334235953, %eax, %edx
	cmpl	$186034, %edx
	jbe	.L6096
.L2651:
	imull	$1197436659, %eax, %edx
	cmpl	$185937, %edx
	jbe	.L6097
.L2652:
	imull	$1997827717, %eax, %edx
	cmpl	$185792, %edx
	jbe	.L6098
.L2653:
	imull	$922830291, %eax, %edx
	cmpl	$185680, %edx
	jbe	.L6099
.L2654:
	imull	$2041979223, %eax, %edx
	cmpl	$185583, %edx
	jbe	.L6100
.L2655:
	imull	$214015815, %eax, %edx
	cmpl	$185455, %edx
	jbe	.L6101
.L2656:
	imull	$1851876735, %eax, %edx
	cmpl	$185391, %edx
	jbe	.L6102
.L2657:
	imull	$-274493875, %eax, %edx
	cmpl	$185343, %edx
	jbe	.L6103
.L2658:
	imull	$44081341, %eax, %edx
	cmpl	$185215, %edx
	jbe	.L6104
.L2659:
	imull	$2047409077, %eax, %edx
	cmpl	$185151, %edx
	jbe	.L6105
.L2660:
	imull	$-605157023, %eax, %edx
	cmpl	$185119, %edx
	jbe	.L6106
.L2661:
	imull	$-1742198517, %eax, %edx
	cmpl	$185103, %edx
	jbe	.L6107
.L2662:
	imull	$1154935193, %eax, %edx
	cmpl	$185056, %edx
	jbe	.L6108
.L2663:
	imull	$1081924211, %eax, %edx
	cmpl	$184912, %edx
	jbe	.L6109
.L2664:
	imull	$-1211036325, %eax, %edx
	cmpl	$184721, %edx
	jbe	.L6110
.L2665:
	imull	$-1561537811, %eax, %edx
	cmpl	$184578, %edx
	jbe	.L6111
.L2666:
	imull	$354423823, %eax, %edx
	cmpl	$184499, %edx
	jbe	.L6112
.L2667:
	imull	$1214488627, %eax, %edx
	cmpl	$184404, %edx
	jbe	.L6113
.L2668:
	imull	$-1909714347, %eax, %edx
	cmpl	$184388, %edx
	jbe	.L6114
.L2669:
	imull	$2102961409, %eax, %edx
	cmpl	$184357, %edx
	jbe	.L6115
.L2670:
	imull	$-1509346321, %eax, %edx
	cmpl	$184246, %edx
	jbe	.L6116
.L2671:
	imull	$1180881193, %eax, %edx
	cmpl	$184167, %edx
	jbe	.L6117
.L2672:
	imull	$-690265889, %eax, %edx
	cmpl	$184120, %edx
	jbe	.L6118
.L2673:
	imull	$-2086647635, %eax, %edx
	cmpl	$184072, %edx
	jbe	.L6119
.L2674:
	imull	$-1905030269, %eax, %edx
	cmpl	$184025, %edx
	jbe	.L6120
.L2675:
	imull	$-1800219627, %eax, %edx
	cmpl	$183883, %edx
	jbe	.L6121
.L2676:
	imull	$-370702599, %eax, %edx
	cmpl	$183789, %edx
	jbe	.L6122
.L2677:
	imull	$1998902883, %eax, %edx
	cmpl	$183773, %edx
	jbe	.L6123
.L2678:
	imull	$1819381847, %eax, %edx
	cmpl	$183553, %edx
	jbe	.L6124
.L2679:
	imull	$1560288969, %eax, %edx
	cmpl	$183412, %edx
	jbe	.L6125
.L2680:
	imull	$-926778825, %eax, %edx
	cmpl	$183302, %edx
	jbe	.L6126
.L2681:
	imull	$600822823, %eax, %edx
	cmpl	$183177, %edx
	jbe	.L6127
.L2682:
	imull	$-1965772789, %eax, %edx
	cmpl	$183083, %edx
	jbe	.L6128
.L2683:
	imull	$2091584849, %eax, %edx
	cmpl	$182974, %edx
	jbe	.L6129
.L2684:
	imull	$-354242951, %eax, %edx
	cmpl	$182787, %edx
	jbe	.L6130
.L2685:
	imull	$837289341, %eax, %edx
	cmpl	$182694, %edx
	jbe	.L6131
.L2686:
	imull	$-1495599933, %eax, %edx
	cmpl	$182523, %edx
	jbe	.L6132
.L2687:
	imull	$-1593756399, %eax, %edx
	cmpl	$182477, %edx
	jbe	.L6133
.L2688:
	imull	$125351227, %eax, %edx
	cmpl	$182461, %edx
	jbe	.L6134
.L2689:
	imull	$-1173825195, %eax, %edx
	cmpl	$182384, %edx
	jbe	.L6135
.L2690:
	imull	$-1979838259, %eax, %edx
	cmpl	$182322, %edx
	jbe	.L6136
.L2691:
	imull	$-1034685895, %eax, %edx
	cmpl	$182291, %edx
	jbe	.L6137
.L2692:
	imull	$-958771293, %eax, %edx
	cmpl	$182275, %edx
	jbe	.L6138
.L2693:
	imull	$381620975, %eax, %edx
	cmpl	$182244, %edx
	jbe	.L6139
.L2694:
	imull	$1931560501, %eax, %edx
	cmpl	$182136, %edx
	jbe	.L6140
.L2695:
	imull	$-14745575, %eax, %edx
	cmpl	$182044, %edx
	jbe	.L6141
.L2696:
	imull	$177629903, %eax, %edx
	cmpl	$181997, %edx
	jbe	.L6142
.L2697:
	imull	$-1607860485, %eax, %edx
	cmpl	$181967, %edx
	jbe	.L6143
.L2698:
	imull	$-486092279, %eax, %edx
	cmpl	$181920, %edx
	jbe	.L6144
.L2699:
	imull	$1710132599, %eax, %edx
	cmpl	$181812, %edx
	jbe	.L6145
.L2700:
	imull	$615877987, %eax, %edx
	cmpl	$181782, %edx
	jbe	.L6146
.L2701:
	imull	$1910914181, %eax, %edx
	cmpl	$181766, %edx
	jbe	.L6147
.L2702:
	imull	$-831624015, %eax, %edx
	cmpl	$181736, %edx
	jbe	.L6148
.L2703:
	imull	$1659142799, %eax, %edx
	cmpl	$181505, %edx
	jbe	.L6149
.L2704:
	imull	$-1055550499, %eax, %edx
	cmpl	$181459, %edx
	jbe	.L6150
.L2705:
	imull	$-1030603449, %eax, %edx
	cmpl	$181444, %edx
	jbe	.L6151
.L2706:
	imull	$1607007445, %eax, %edx
	cmpl	$181398, %edx
	jbe	.L6152
.L2707:
	imull	$-885937865, %eax, %edx
	cmpl	$181321, %edx
	jbe	.L6153
.L2708:
	imull	$1705367993, %eax, %edx
	cmpl	$181306, %edx
	jbe	.L6154
.L2709:
	imull	$1026525975, %eax, %edx
	cmpl	$181077, %edx
	jbe	.L6155
.L2710:
	imull	$-2054586731, %eax, %edx
	cmpl	$180909, %edx
	jbe	.L6156
.L2711:
	imull	$-843508929, %eax, %edx
	cmpl	$180894, %edx
	jbe	.L6157
.L2712:
	imull	$1259353067, %eax, %edx
	cmpl	$180863, %edx
	jbe	.L6158
.L2713:
	imull	$-279544455, %eax, %edx
	cmpl	$180817, %edx
	jbe	.L6159
.L2714:
	imull	$-39224271, %eax, %edx
	cmpl	$180757, %edx
	jbe	.L6160
.L2715:
	imull	$937711335, %eax, %edx
	cmpl	$180711, %edx
	jbe	.L6161
.L2716:
	imull	$-680567947, %eax, %edx
	cmpl	$180665, %edx
	jbe	.L6162
.L2717:
	imull	$161767653, %eax, %edx
	cmpl	$180544, %edx
	jbe	.L6163
.L2718:
	imull	$1593943369, %eax, %edx
	cmpl	$180453, %edx
	jbe	.L6164
.L2719:
	imull	$932112333, %eax, %edx
	cmpl	$180362, %edx
	jbe	.L6165
.L2720:
	imull	$-1110210909, %eax, %edx
	cmpl	$180316, %edx
	jbe	.L6166
.L2721:
	imull	$-655231717, %eax, %edx
	cmpl	$180256, %edx
	jbe	.L6167
.L2722:
	imull	$954116775, %eax, %edx
	cmpl	$180226, %edx
	jbe	.L6168
.L2723:
	imull	$1867886377, %eax, %edx
	cmpl	$180210, %edx
	jbe	.L6169
.L2724:
	imull	$1693178833, %eax, %edx
	cmpl	$180029, %edx
	jbe	.L6170
.L2725:
	imull	$1070817813, %eax, %edx
	cmpl	$179939, %edx
	jbe	.L6171
.L2726:
	imull	$-1513934143, %eax, %edx
	cmpl	$179908, %edx
	jbe	.L6172
.L2727:
	imull	$-498582409, %eax, %edx
	cmpl	$179863, %edx
	jbe	.L6173
.L2728:
	imull	$1363450287, %eax, %edx
	cmpl	$179803, %edx
	jbe	.L6174
.L2729:
	imull	$1765586941, %eax, %edx
	cmpl	$179758, %edx
	jbe	.L6175
.L2730:
	imull	$102795987, %eax, %edx
	cmpl	$179713, %edx
	jbe	.L6176
.L2731:
	imull	$-337539987, %eax, %edx
	cmpl	$179638, %edx
	jbe	.L6177
.L2732:
	imull	$-174952873, %eax, %edx
	cmpl	$179623, %edx
	jbe	.L6178
.L2733:
	imull	$684012645, %eax, %edx
	cmpl	$179578, %edx
	jbe	.L6179
.L2734:
	imull	$2045803721, %eax, %edx
	cmpl	$179487, %edx
	jbe	.L6180
.L2735:
	imull	$-158661187, %eax, %edx
	cmpl	$179278, %edx
	jbe	.L6181
.L2736:
	imull	$-916472309, %eax, %edx
	cmpl	$179173, %edx
	jbe	.L6182
.L2737:
	imull	$1812960921, %eax, %edx
	cmpl	$179128, %edx
	jbe	.L6183
.L2738:
	imull	$-897642971, %eax, %edx
	cmpl	$179098, %edx
	jbe	.L6184
.L2739:
	imull	$-580347767, %eax, %edx
	cmpl	$179009, %edx
	jbe	.L6185
.L2740:
	imull	$1555608129, %eax, %edx
	cmpl	$178949, %edx
	jbe	.L6186
.L2741:
	imull	$1825723383, %eax, %edx
	cmpl	$178904, %edx
	jbe	.L6187
.L2742:
	imull	$-143588773, %eax, %edx
	cmpl	$178815, %edx
	jbe	.L6188
.L2743:
	imull	$1456924135, %eax, %edx
	cmpl	$178785, %edx
	jbe	.L6189
.L2744:
	imull	$-44506507, %eax, %edx
	cmpl	$178740, %edx
	jbe	.L6190
.L2745:
	imull	$1605231299, %eax, %edx
	cmpl	$178636, %edx
	jbe	.L6191
.L2746:
	imull	$-1649478895, %eax, %edx
	cmpl	$178592, %edx
	jbe	.L6192
.L2747:
	imull	$-682596523, %eax, %edx
	cmpl	$178503, %edx
	jbe	.L6193
.L2748:
	imull	$-2024099913, %eax, %edx
	cmpl	$178429, %edx
	jbe	.L6194
.L2749:
	imull	$2085494981, %eax, %edx
	cmpl	$178384, %edx
	jbe	.L6195
.L2750:
	imull	$-1188815845, %eax, %edx
	cmpl	$178340, %edx
	jbe	.L6196
.L2751:
	imull	$-1733604333, %eax, %edx
	cmpl	$178280, %edx
	jbe	.L6197
.L2752:
	imull	$-1362975263, %eax, %edx
	cmpl	$178236, %edx
	jbe	.L6198
.L2753:
	imull	$-1861930601, %eax, %edx
	cmpl	$178192, %edx
	jbe	.L6199
.L2754:
	imull	$-2108198781, %eax, %edx
	cmpl	$178162, %edx
	jbe	.L6200
.L2755:
	imull	$-716332635, %eax, %edx
	cmpl	$178147, %edx
	jbe	.L6201
.L2756:
	imull	$756824785, %eax, %edx
	cmpl	$178118, %edx
	jbe	.L2757
.L2759:
	cmpl	$581822640, %eax
	jbe	.L225
	imull	$-1058918391, %eax, %edx
	cmpl	$178059, %edx
	jbe	.L6202
.L2760:
	imull	$1605829773, %eax, %edx
	cmpl	$177970, %edx
	jbe	.L6203
.L2761:
	imull	$-1191316487, %eax, %edx
	cmpl	$177941, %edx
	jbe	.L6204
.L2762:
	imull	$1248423271, %eax, %edx
	cmpl	$177838, %edx
	jbe	.L6205
.L2763:
	imull	$-2035084839, %eax, %edx
	cmpl	$177705, %edx
	jbe	.L6206
.L2764:
	imull	$210138811, %eax, %edx
	cmpl	$177632, %edx
	jbe	.L6207
.L2765:
	imull	$-1206910499, %eax, %edx
	cmpl	$177617, %edx
	jbe	.L6208
.L2766:
	imull	$652667469, %eax, %edx
	cmpl	$177499, %edx
	jbe	.L6209
.L2767:
	imull	$1721145635, %eax, %edx
	cmpl	$177455, %edx
	jbe	.L6210
.L2768:
	imull	$-502317729, %eax, %edx
	cmpl	$177309, %edx
	jbe	.L6211
.L2769:
	imull	$-60270291, %eax, %edx
	cmpl	$177265, %edx
	jbe	.L6212
.L2770:
	imull	$247183439, %eax, %edx
	cmpl	$177192, %edx
	jbe	.L6213
.L2771:
	imull	$-1033576697, %eax, %edx
	cmpl	$177133, %edx
	jbe	.L6214
.L2772:
	imull	$-286378381, %eax, %edx
	cmpl	$177104, %edx
	jbe	.L6215
.L2773:
	imull	$-748404375, %eax, %edx
	cmpl	$176885, %edx
	jbe	.L6216
.L2774:
	imull	$2092641877, %eax, %edx
	cmpl	$176624, %edx
	jbe	.L6217
.L2775:
	imull	$714268473, %eax, %edx
	cmpl	$176536, %edx
	jbe	.L6218
.L2776:
	imull	$-625970703, %eax, %edx
	cmpl	$176478, %edx
	jbe	.L6219
.L2777:
	imull	$988094615, %eax, %edx
	cmpl	$176319, %edx
	jbe	.L6220
.L2778:
	imull	$-156847109, %eax, %edx
	cmpl	$176232, %edx
	jbe	.L6221
.L2779:
	imull	$1853111069, %eax, %edx
	cmpl	$176218, %edx
	jbe	.L6222
.L2780:
	imull	$1110254067, %eax, %edx
	cmpl	$176174, %edx
	jbe	.L6223
.L2781:
	imull	$350591607, %eax, %edx
	cmpl	$176088, %edx
	jbe	.L6224
.L2782:
	imull	$771816551, %eax, %edx
	cmpl	$175972, %edx
	jbe	.L6225
.L2783:
	imull	$-369627915, %eax, %edx
	cmpl	$175929, %edx
	jbe	.L6226
.L2784:
	imull	$1765546571, %eax, %edx
	cmpl	$175886, %edx
	jbe	.L6227
.L2785:
	imull	$1005107821, %eax, %edx
	cmpl	$175871, %edx
	jbe	.L6228
.L2786:
	imull	$2024024647, %eax, %edx
	cmpl	$175742, %edx
	jbe	.L6229
.L2787:
	imull	$-266557517, %eax, %edx
	cmpl	$175713, %edx
	jbe	.L6230
.L2788:
	imull	$-582749251, %eax, %edx
	cmpl	$175526, %edx
	jbe	.L6231
.L2789:
	imull	$602309801, %eax, %edx
	cmpl	$175498, %edx
	jbe	.L6232
.L2790:
	imull	$1716864097, %eax, %edx
	cmpl	$175440, %edx
	jbe	.L6233
.L2791:
	imull	$15427451, %eax, %edx
	cmpl	$175311, %edx
	jbe	.L6234
.L2792:
	imull	$1754682261, %eax, %edx
	cmpl	$175240, %edx
	jbe	.L6235
.L2793:
	imull	$-1225406707, %eax, %edx
	cmpl	$175183, %edx
	jbe	.L6236
.L2794:
	imull	$-1612429521, %eax, %edx
	cmpl	$175111, %edx
	jbe	.L6237
.L2795:
	imull	$2143019389, %eax, %edx
	cmpl	$175068, %edx
	jbe	.L6238
.L2796:
	imull	$-1192239669, %eax, %edx
	cmpl	$174969, %edx
	jbe	.L6239
.L2797:
	imull	$-369474601, %eax, %edx
	cmpl	$174940, %edx
	jbe	.L6240
.L2798:
	imull	$2091111219, %eax, %edx
	cmpl	$174798, %edx
	jbe	.L6241
.L2799:
	imull	$-1948479247, %eax, %edx
	cmpl	$174641, %edx
	jbe	.L6242
.L2800:
	imull	$-152350837, %eax, %edx
	cmpl	$174514, %edx
	jbe	.L6243
.L2801:
	imull	$-1858541873, %eax, %edx
	cmpl	$174429, %edx
	jbe	.L6244
.L2802:
	imull	$-1015196281, %eax, %edx
	cmpl	$174372, %edx
	jbe	.L6245
.L2803:
	imull	$-198384677, %eax, %edx
	cmpl	$174174, %edx
	jbe	.L6246
.L2804:
	imull	$-937821281, %eax, %edx
	cmpl	$174089, %edx
	jbe	.L6247
.L2805:
	imull	$2030784877, %eax, %edx
	cmpl	$174047, %edx
	jbe	.L6248
.L2806:
	imull	$-1886041021, %eax, %edx
	cmpl	$174005, %edx
	jbe	.L6249
.L2807:
	imull	$1102660795, %eax, %edx
	cmpl	$173948, %edx
	jbe	.L6250
.L2808:
	imull	$-355464759, %eax, %edx
	cmpl	$173906, %edx
	jbe	.L6251
.L2809:
	imull	$-1702586291, %eax, %edx
	cmpl	$173821, %edx
	jbe	.L6252
.L2810:
	imull	$1766401461, %eax, %edx
	cmpl	$173653, %edx
	jbe	.L6253
.L2811:
	imull	$1141900069, %eax, %edx
	cmpl	$173541, %edx
	jbe	.L6254
.L2812:
	imull	$824894579, %eax, %edx
	cmpl	$173442, %edx
	jbe	.L6255
.L2813:
	imull	$671289151, %eax, %edx
	cmpl	$173414, %edx
	jbe	.L6256
.L2814:
	imull	$-1622766587, %eax, %edx
	cmpl	$173316, %edx
	jbe	.L6257
.L2815:
	imull	$-1035067543, %eax, %edx
	cmpl	$173233, %edx
	jbe	.L6258
.L2816:
	imull	$438000415, %eax, %edx
	cmpl	$173191, %edx
	jbe	.L6259
.L2817:
	imull	$-385714343, %eax, %edx
	cmpl	$173121, %edx
	jbe	.L6260
.L2818:
	imull	$-394179747, %eax, %edx
	cmpl	$173037, %edx
	jbe	.L6261
.L2819:
	imull	$1400995129, %eax, %edx
	cmpl	$172898, %edx
	jbe	.L6262
.L2820:
	imull	$9334255, %eax, %edx
	cmpl	$172856, %edx
	jbe	.L6263
.L2821:
	imull	$-866217701, %eax, %edx
	cmpl	$172828, %edx
	jbe	.L6264
.L2822:
	imull	$1794248979, %eax, %edx
	cmpl	$172773, %edx
	jbe	.L6265
.L2823:
	imull	$-1699375451, %eax, %edx
	cmpl	$172648, %edx
	jbe	.L6266
.L2824:
	imull	$962739465, %eax, %edx
	cmpl	$172564, %edx
	jbe	.L6267
.L2825:
	imull	$1567826019, %eax, %edx
	cmpl	$172440, %edx
	jbe	.L6268
.L2826:
	imull	$1489802237, %eax, %edx
	cmpl	$172370, %edx
	jbe	.L6269
.L2827:
	imull	$-235267481, %eax, %edx
	cmpl	$172357, %edx
	jbe	.L6270
.L2828:
	imull	$-165091629, %eax, %edx
	cmpl	$172329, %edx
	jbe	.L6271
.L2829:
	imull	$2000690575, %eax, %edx
	cmpl	$172191, %edx
	jbe	.L6272
.L2830:
	imull	$1042888905, %eax, %edx
	cmpl	$172122, %edx
	jbe	.L6273
.L2831:
	imull	$309302327, %eax, %edx
	cmpl	$172025, %edx
	jbe	.L6274
.L2832:
	imull	$-581353949, %eax, %edx
	cmpl	$171998, %edx
	jbe	.L6275
.L2833:
	imull	$562986865, %eax, %edx
	cmpl	$171956, %edx
	jbe	.L6276
.L2834:
	imull	$-160766821, %eax, %edx
	cmpl	$171943, %edx
	jbe	.L6277
.L2835:
	imull	$-494654283, %eax, %edx
	cmpl	$171874, %edx
	jbe	.L6278
.L2836:
	imull	$814761117, %eax, %edx
	cmpl	$171709, %edx
	jbe	.L6279
.L2837:
	imull	$-1495199753, %eax, %edx
	cmpl	$171585, %edx
	jbe	.L6280
.L2838:
	imull	$-731412359, %eax, %edx
	cmpl	$171572, %edx
	jbe	.L6281
.L2839:
	imull	$-515149051, %eax, %edx
	cmpl	$171544, %edx
	jbe	.L6282
.L2840:
	imull	$-396123615, %eax, %edx
	cmpl	$171407, %edx
	jbe	.L6283
.L2841:
	imull	$-1952289007, %eax, %edx
	cmpl	$171298, %edx
	jbe	.L6284
.L2842:
	imull	$1383833087, %eax, %edx
	cmpl	$171202, %edx
	jbe	.L6285
.L2843:
	imull	$1513344057, %eax, %edx
	cmpl	$171134, %edx
	jbe	.L6286
.L2844:
	imull	$-115280473, %eax, %edx
	cmpl	$171039, %edx
	jbe	.L6287
.L2845:
	imull	$-1463062475, %eax, %edx
	cmpl	$170998, %edx
	jbe	.L6288
.L2846:
	imull	$1234412001, %eax, %edx
	cmpl	$170971, %edx
	jbe	.L6289
.L2847:
	imull	$215543191, %eax, %edx
	cmpl	$170930, %edx
	jbe	.L6290
.L2848:
	imull	$-464902413, %eax, %edx
	cmpl	$170794, %edx
	jbe	.L6291
.L2849:
	imull	$-917459519, %eax, %edx
	cmpl	$170753, %edx
	jbe	.L6292
.L2850:
	imull	$-1345857693, %eax, %edx
	cmpl	$170685, %edx
	jbe	.L6293
.L2851:
	imull	$300164785, %eax, %edx
	cmpl	$170645, %edx
	jbe	.L6294
.L2852:
	imull	$1484665307, %eax, %edx
	cmpl	$170631, %edx
	jbe	.L6295
.L2853:
	imull	$490502559, %eax, %edx
	cmpl	$170550, %edx
	jbe	.L6296
.L2854:
	imull	$529432429, %eax, %edx
	cmpl	$170509, %edx
	jbe	.L6297
.L2855:
	imull	$426277931, %eax, %edx
	cmpl	$170306, %edx
	jbe	.L6298
.L2856:
	imull	$232206405, %eax, %edx
	cmpl	$170239, %edx
	jbe	.L6299
.L2857:
	imull	$-1518053187, %eax, %edx
	cmpl	$170185, %edx
	jbe	.L6300
.L2858:
	imull	$927970195, %eax, %edx
	cmpl	$170144, %edx
	jbe	.L6301
.L2859:
	imull	$39467359, %eax, %edx
	cmpl	$170117, %edx
	jbe	.L6302
.L2860:
	imull	$-1435454163, %eax, %edx
	cmpl	$170077, %edx
	jbe	.L6303
.L2861:
	imull	$62738725, %eax, %edx
	cmpl	$170023, %edx
	jbe	.L6304
.L2862:
	imull	$258197117, %eax, %edx
	cmpl	$169754, %edx
	jbe	.L6305
.L2863:
	imull	$1854255335, %eax, %edx
	cmpl	$169741, %edx
	jbe	.L6306
.L2864:
	imull	$-1654208173, %eax, %edx
	cmpl	$169714, %edx
	jbe	.L6307
.L2865:
	imull	$-1074887307, %eax, %edx
	cmpl	$169701, %edx
	jbe	.L6308
.L2866:
	imull	$745313625, %eax, %edx
	cmpl	$169620, %edx
	jbe	.L6309
.L2867:
	imull	$1154635827, %eax, %edx
	cmpl	$169500, %edx
	jbe	.L6310
.L2868:
	imull	$-1632199425, %eax, %edx
	cmpl	$169473, %edx
	jbe	.L6311
.L2869:
	imull	$65401293, %eax, %edx
	cmpl	$169433, %edx
	jbe	.L6312
.L2870:
	imull	$-192076859, %eax, %edx
	cmpl	$169379, %edx
	jbe	.L6313
.L2871:
	imull	$-1622866777, %eax, %edx
	cmpl	$169313, %edx
	jbe	.L6314
.L2872:
	imull	$1357739829, %eax, %edx
	cmpl	$169273, %edx
	jbe	.L6315
.L2873:
	imull	$1364050895, %eax, %edx
	cmpl	$169153, %edx
	jbe	.L6316
.L2874:
	imull	$1931881665, %eax, %edx
	cmpl	$169033, %edx
	jbe	.L6317
.L2875:
	imull	$1751892331, %eax, %edx
	cmpl	$169020, %edx
	jbe	.L6318
.L2876:
	imull	$595514287, %eax, %edx
	cmpl	$168940, %edx
	jbe	.L6319
.L2877:
	imull	$1298839711, %eax, %edx
	cmpl	$168833, %edx
	jbe	.L6320
.L2878:
	imull	$-29030313, %eax, %edx
	cmpl	$168780, %edx
	jbe	.L6321
.L2879:
	imull	$867835493, %eax, %edx
	cmpl	$168741, %edx
	jbe	.L6322
.L2880:
	imull	$-1290666607, %eax, %edx
	cmpl	$168714, %edx
	jbe	.L6323
.L2881:
	imull	$-1399495097, %eax, %edx
	cmpl	$168674, %edx
	jbe	.L6324
.L2882:
	imull	$-110793259, %eax, %edx
	cmpl	$168635, %edx
	jbe	.L6325
.L2883:
	imull	$-697082753, %eax, %edx
	cmpl	$168621, %edx
	jbe	.L6326
.L2884:
	imull	$1212613499, %eax, %edx
	cmpl	$168278, %edx
	jbe	.L6327
.L2885:
	imull	$555854913, %eax, %edx
	cmpl	$168186, %edx
	jbe	.L6328
.L2886:
	imull	$862659341, %eax, %edx
	cmpl	$168159, %edx
	jbe	.L6329
.L2887:
	imull	$1380183145, %eax, %edx
	cmpl	$168028, %edx
	jbe	.L6330
.L2888:
	imull	$-1552112551, %eax, %edx
	cmpl	$167923, %edx
	jbe	.L6331
.L2889:
	imull	$-1154044733, %eax, %edx
	cmpl	$167909, %edx
	jbe	.L6332
.L2890:
	imull	$1054812943, %eax, %edx
	cmpl	$167883, %edx
	jbe	.L6333
.L2891:
	imull	$-2016481187, %eax, %edx
	cmpl	$167844, %edx
	jbe	.L6334
.L2892:
	imull	$-418407423, %eax, %edx
	cmpl	$167765, %edx
	jbe	.L6335
.L2893:
	imull	$223110827, %eax, %edx
	cmpl	$167752, %edx
	jbe	.L6336
.L2894:
	imull	$-301045191, %eax, %edx
	cmpl	$167713, %edx
	jbe	.L6337
.L2895:
	imull	$-272741571, %eax, %edx
	cmpl	$167634, %edx
	jbe	.L6338
.L2896:
	imull	$-2105008159, %eax, %edx
	cmpl	$167556, %edx
	jbe	.L6339
.L2897:
	imull	$1662438295, %eax, %edx
	cmpl	$167516, %edx
	jbe	.L6340
.L2898:
	imull	$1724988035, %eax, %edx
	cmpl	$167490, %edx
	jbe	.L6341
.L2899:
	imull	$589580809, %eax, %edx
	cmpl	$167399, %edx
	jbe	.L6342
.L2900:
	imull	$1060898923, %eax, %edx
	cmpl	$167334, %edx
	jbe	.L6343
.L2901:
	imull	$-1798255111, %eax, %edx
	cmpl	$167295, %edx
	jbe	.L6344
.L2902:
	imull	$1956393647, %eax, %edx
	cmpl	$167256, %edx
	jbe	.L6345
.L2903:
	imull	$1825607669, %eax, %edx
	cmpl	$167164, %edx
	jbe	.L6346
.L2904:
	imull	$1442740055, %eax, %edx
	cmpl	$167099, %edx
	jbe	.L6347
.L2905:
	imull	$-1779479587, %eax, %edx
	cmpl	$167008, %edx
	jbe	.L6348
.L2906:
	imull	$1102574669, %eax, %edx
	cmpl	$166905, %edx
	jbe	.L6349
.L2907:
	imull	$-756679099, %eax, %edx
	cmpl	$166853, %edx
	jbe	.L6350
.L2908:
	imull	$-1685825125, %eax, %edx
	cmpl	$166814, %edx
	jbe	.L6351
.L2909:
	imull	$-1410091169, %eax, %edx
	cmpl	$166736, %edx
	jbe	.L6352
.L2910:
	imull	$-1227657461, %eax, %edx
	cmpl	$166710, %edx
	jbe	.L6353
.L2911:
	imull	$-2067237373, %eax, %edx
	cmpl	$166658, %edx
	jbe	.L6354
.L2912:
	imull	$-1418056895, %eax, %edx
	cmpl	$166516, %edx
	jbe	.L6355
.L2913:
	imull	$-1147200265, %eax, %edx
	cmpl	$166478, %edx
	jbe	.L6356
.L2914:
	imull	$1585247609, %eax, %edx
	cmpl	$166465, %edx
	jbe	.L6357
.L2915:
	imull	$1487992659, %eax, %edx
	cmpl	$166349, %edx
	jbe	.L6358
.L2916:
	imull	$-1759638511, %eax, %edx
	cmpl	$166207, %edx
	jbe	.L6359
.L2917:
	imull	$594386119, %eax, %edx
	cmpl	$166168, %edx
	jbe	.L6360
.L2918:
	imull	$-1144316599, %eax, %edx
	cmpl	$166156, %edx
	jbe	.L6361
.L2919:
	imull	$1949646499, %eax, %edx
	cmpl	$166040, %edx
	jbe	.L6362
.L2920:
	imull	$-1204343823, %eax, %edx
	cmpl	$166001, %edx
	jbe	.L6363
.L2921:
	imull	$-454730015, %eax, %edx
	cmpl	$165899, %edx
	jbe	.L6364
.L2922:
	imull	$-1257831985, %eax, %edx
	cmpl	$165809, %edx
	jbe	.L6365
.L2923:
	imull	$-775358199, %eax, %edx
	cmpl	$165745, %edx
	jbe	.L6366
.L2924:
	imull	$1413483199, %eax, %edx
	cmpl	$165707, %edx
	jbe	.L6367
.L2925:
	imull	$-712377245, %eax, %edx
	cmpl	$165630, %edx
	jbe	.L6368
.L2926:
	imull	$-1569891451, %eax, %edx
	cmpl	$165617, %edx
	jbe	.L6369
.L2927:
	imull	$1912940251, %eax, %edx
	cmpl	$165579, %edx
	jbe	.L6370
.L2928:
	imull	$-988522905, %eax, %edx
	cmpl	$165553, %edx
	jbe	.L6371
.L2929:
	imull	$-1694419297, %eax, %edx
	cmpl	$165502, %edx
	jbe	.L6372
.L2930:
	imull	$1174256529, %eax, %edx
	cmpl	$165388, %edx
	jbe	.L6373
.L2931:
	imull	$485686229, %eax, %edx
	cmpl	$165311, %edx
	jbe	.L6374
.L2932:
	imull	$-802921147, %eax, %edx
	cmpl	$165210, %edx
	jbe	.L6375
.L2933:
	imull	$1627855215, %eax, %edx
	cmpl	$165197, %edx
	jbe	.L6376
.L2934:
	imull	$-1698463589, %eax, %edx
	cmpl	$165171, %edx
	jbe	.L6377
.L2935:
	imull	$-2064859551, %eax, %edx
	cmpl	$165083, %edx
	jbe	.L6378
.L2936:
	imull	$-2012218835, %eax, %edx
	cmpl	$165057, %edx
	jbe	.L6379
.L2937:
	imull	$-785103323, %eax, %edx
	cmpl	$165007, %edx
	jbe	.L2938
.L2940:
	cmpl	$678133680, %eax
	jbe	.L225
	imull	$1541279881, %eax, %edx
	cmpl	$164930, %edx
	jbe	.L6380
.L2941:
	imull	$-1130245875, %eax, %edx
	cmpl	$164854, %edx
	jbe	.L6381
.L2942:
	imull	$-731772981, %eax, %edx
	cmpl	$164665, %edx
	jbe	.L6382
.L2943:
	imull	$-1596933317, %eax, %edx
	cmpl	$164564, %edx
	jbe	.L6383
.L2944:
	imull	$-1945707213, %eax, %edx
	cmpl	$164514, %edx
	jbe	.L6384
.L2945:
	imull	$2136709631, %eax, %edx
	cmpl	$164488, %edx
	jbe	.L6385
.L2946:
	imull	$-794584575, %eax, %edx
	cmpl	$164476, %edx
	jbe	.L6386
.L2947:
	imull	$1668556727, %eax, %edx
	cmpl	$164438, %edx
	jbe	.L6387
.L2948:
	imull	$-806384587, %eax, %edx
	cmpl	$164300, %edx
	jbe	.L6388
.L2949:
	imull	$1653249561, %eax, %edx
	cmpl	$164224, %edx
	jbe	.L6389
.L2950:
	imull	$778515153, %eax, %edx
	cmpl	$164174, %edx
	jbe	.L6390
.L2951:
	imull	$1188004595, %eax, %edx
	cmpl	$164111, %edx
	jbe	.L6391
.L2952:
	imull	$-474830399, %eax, %edx
	cmpl	$164074, %edx
	jbe	.L6392
.L2953:
	imull	$1881498487, %eax, %edx
	cmpl	$164036, %edx
	jbe	.L6393
.L2954:
	imull	$-963165563, %eax, %edx
	cmpl	$163998, %edx
	jbe	.L6394
.L2955:
	imull	$203577811, %eax, %edx
	cmpl	$163911, %edx
	jbe	.L6395
.L2956:
	imull	$1349172641, %eax, %edx
	cmpl	$163873, %edx
	jbe	.L6396
.L2957:
	imull	$-706629957, %eax, %edx
	cmpl	$163761, %edx
	jbe	.L6397
.L2958:
	imull	$436257493, %eax, %edx
	cmpl	$163698, %edx
	jbe	.L6398
.L2959:
	imull	$-518197319, %eax, %edx
	cmpl	$163624, %edx
	jbe	.L6399
.L2960:
	imull	$243290403, %eax, %edx
	cmpl	$163611, %edx
	jbe	.L6400
.L2961:
	imull	$2112238781, %eax, %edx
	cmpl	$163549, %edx
	jbe	.L6401
.L2962:
	imull	$-175802073, %eax, %edx
	cmpl	$163536, %edx
	jbe	.L6402
.L2963:
	imull	$-932835437, %eax, %edx
	cmpl	$163511, %edx
	jbe	.L6403
.L2964:
	imull	$-1679566947, %eax, %edx
	cmpl	$163350, %edx
	jbe	.L6404
.L2965:
	imull	$2043527049, %eax, %edx
	cmpl	$163325, %edx
	jbe	.L6405
.L2966:
	imull	$251406349, %eax, %edx
	cmpl	$163250, %edx
	jbe	.L6406
.L2967:
	imull	$652805, %eax, %edx
	cmpl	$163201, %edx
	jbe	.L6407
.L2968:
	imull	$2067771953, %eax, %edx
	cmpl	$163176, %edx
	jbe	.L6408
.L2969:
	imull	$219811531, %eax, %edx
	cmpl	$163064, %edx
	jbe	.L6409
.L2970:
	imull	$731124163, %eax, %edx
	cmpl	$163015, %edx
	jbe	.L6410
.L2971:
	imull	$-1284074147, %eax, %edx
	cmpl	$162953, %edx
	jbe	.L6411
.L2972:
	imull	$584367019, %eax, %edx
	cmpl	$162867, %edx
	jbe	.L6412
.L2973:
	imull	$448101147, %eax, %edx
	cmpl	$162768, %edx
	jbe	.L6413
.L2974:
	imull	$1187775785, %eax, %edx
	cmpl	$162731, %edx
	jbe	.L6414
.L2975:
	imull	$2016433375, %eax, %edx
	cmpl	$162694, %edx
	jbe	.L6415
.L2976:
	imull	$467441815, %eax, %edx
	cmpl	$162645, %edx
	jbe	.L6416
.L2977:
	imull	$1284084177, %eax, %edx
	cmpl	$162583, %edx
	jbe	.L6417
.L2978:
	imull	$539491975, %eax, %edx
	cmpl	$162546, %edx
	jbe	.L6418
.L2979:
	imull	$642189503, %eax, %edx
	cmpl	$162497, %edx
	jbe	.L6419
.L2980:
	imull	$-822537331, %eax, %edx
	cmpl	$162460, %edx
	jbe	.L6420
.L2981:
	imull	$1751990705, %eax, %edx
	cmpl	$162386, %edx
	jbe	.L6421
.L2982:
	imull	$-993431341, %eax, %edx
	cmpl	$162325, %edx
	jbe	.L6422
.L2983:
	imull	$832100239, %eax, %edx
	cmpl	$162202, %edx
	jbe	.L6423
.L2984:
	imull	$-296070455, %eax, %edx
	cmpl	$162141, %edx
	jbe	.L6424
.L2985:
	imull	$1274534017, %eax, %edx
	cmpl	$162092, %edx
	jbe	.L6425
.L2986:
	imull	$437745997, %eax, %edx
	cmpl	$162068, %edx
	jbe	.L6426
.L2987:
	imull	$689125745, %eax, %edx
	cmpl	$161994, %edx
	jbe	.L6427
.L2988:
	imull	$-1200661757, %eax, %edx
	cmpl	$161836, %edx
	jbe	.L6428
.L2989:
	imull	$-466580587, %eax, %edx
	cmpl	$161726, %edx
	jbe	.L6429
.L2990:
	imull	$-2020628415, %eax, %edx
	cmpl	$161702, %edx
	jbe	.L6430
.L2991:
	imull	$-638919419, %eax, %edx
	cmpl	$161628, %edx
	jbe	.L6431
.L2992:
	imull	$-1159064545, %eax, %edx
	cmpl	$161519, %edx
	jbe	.L6432
.L2993:
	imull	$-2130608659, %eax, %edx
	cmpl	$161483, %edx
	jbe	.L6433
.L2994:
	imull	$-610041173, %eax, %edx
	cmpl	$161301, %edx
	jbe	.L6434
.L2995:
	imull	$-2019842503, %eax, %edx
	cmpl	$161264, %edx
	jbe	.L6435
.L2996:
	imull	$-1073379087, %eax, %edx
	cmpl	$161216, %edx
	jbe	.L6436
.L2997:
	imull	$1382764455, %eax, %edx
	cmpl	$161180, %edx
	jbe	.L6437
.L2998:
	imull	$1813391269, %eax, %edx
	cmpl	$161047, %edx
	jbe	.L6438
.L2999:
	imull	$736298505, %eax, %edx
	cmpl	$160974, %edx
	jbe	.L6439
.L3000:
	imull	$1964388595, %eax, %edx
	cmpl	$160962, %edx
	jbe	.L6440
.L3001:
	imull	$1359447999, %eax, %edx
	cmpl	$160938, %edx
	jbe	.L6441
.L3002:
	imull	$-590189939, %eax, %edx
	cmpl	$160902, %edx
	jbe	.L6442
.L3003:
	imull	$-479059613, %eax, %edx
	cmpl	$160866, %edx
	jbe	.L6443
.L3004:
	imull	$-791080827, %eax, %edx
	cmpl	$160854, %edx
	jbe	.L6444
.L3005:
	imull	$1210778471, %eax, %edx
	cmpl	$160793, %edx
	jbe	.L6445
.L3006:
	imull	$-2094506007, %eax, %edx
	cmpl	$160781, %edx
	jbe	.L6446
.L3007:
	imull	$-1960924171, %eax, %edx
	cmpl	$160757, %edx
	jbe	.L6447
.L3008:
	imull	$-734176949, %eax, %edx
	cmpl	$160721, %edx
	jbe	.L6448
.L3009:
	imull	$-1512855591, %eax, %edx
	cmpl	$160685, %edx
	jbe	.L6449
.L3010:
	imull	$-1752628157, %eax, %edx
	cmpl	$160673, %edx
	jbe	.L6450
.L3011:
	imull	$-658614127, %eax, %edx
	cmpl	$160637, %edx
	jbe	.L6451
.L3012:
	imull	$-248783561, %eax, %edx
	cmpl	$160505, %edx
	jbe	.L6452
.L3013:
	imull	$922446761, %eax, %edx
	cmpl	$160397, %edx
	jbe	.L6453
.L3014:
	imull	$1108259679, %eax, %edx
	cmpl	$160361, %edx
	jbe	.L6454
.L3015:
	imull	$2038751313, %eax, %edx
	cmpl	$160253, %edx
	jbe	.L6455
.L3016:
	imull	$179884693, %eax, %edx
	cmpl	$160182, %edx
	jbe	.L6456
.L3017:
	imull	$-785459699, %eax, %edx
	cmpl	$160134, %edx
	jbe	.L6457
.L3018:
	imull	$-1389825999, %eax, %edx
	cmpl	$160062, %edx
	jbe	.L6458
.L3019:
	imull	$1386154727, %eax, %edx
	cmpl	$160027, %edx
	jbe	.L6459
.L3020:
	imull	$192600865, %eax, %edx
	cmpl	$159967, %edx
	jbe	.L6460
.L3021:
	imull	$1129985253, %eax, %edx
	cmpl	$159896, %edx
	jbe	.L6461
.L3022:
	imull	$-465582577, %eax, %edx
	cmpl	$159884, %edx
	jbe	.L6462
.L3023:
	imull	$-605120769, %eax, %edx
	cmpl	$159788, %edx
	jbe	.L6463
.L3024:
	imull	$839948033, %eax, %edx
	cmpl	$159777, %edx
	jbe	.L6464
.L3025:
	imull	$-562685277, %eax, %edx
	cmpl	$159717, %edx
	jbe	.L6465
.L3026:
	imull	$1918864837, %eax, %edx
	cmpl	$159705, %edx
	jbe	.L6466
.L3027:
	imull	$1025728167, %eax, %edx
	cmpl	$159646, %edx
	jbe	.L6467
.L3028:
	imull	$-1628421351, %eax, %edx
	cmpl	$159539, %edx
	jbe	.L6468
.L3029:
	imull	$-958300721, %eax, %edx
	cmpl	$159504, %edx
	jbe	.L6469
.L3030:
	imull	$-1861784725, %eax, %edx
	cmpl	$159385, %edx
	jbe	.L6470
.L3031:
	imull	$-2143260553, %eax, %edx
	cmpl	$159362, %edx
	jbe	.L6471
.L3032:
	imull	$-1801135879, %eax, %edx
	cmpl	$159350, %edx
	jbe	.L6472
.L3033:
	imull	$-101642833, %eax, %edx
	cmpl	$159314, %edx
	jbe	.L6473
.L3034:
	imull	$1625596013, %eax, %edx
	cmpl	$159184, %edx
	jbe	.L6474
.L3035:
	imull	$-2126873789, %eax, %edx
	cmpl	$159149, %edx
	jbe	.L6475
.L3036:
	imull	$1148008337, %eax, %edx
	cmpl	$159114, %edx
	jbe	.L6476
.L3037:
	imull	$-725553877, %eax, %edx
	cmpl	$159008, %edx
	jbe	.L6477
.L3038:
	imull	$-160244551, %eax, %edx
	cmpl	$158972, %edx
	jbe	.L6478
.L3039:
	imull	$1598596647, %eax, %edx
	cmpl	$158890, %edx
	jbe	.L6479
.L3040:
	imull	$-1441132021, %eax, %edx
	cmpl	$158819, %edx
	jbe	.L6480
.L3041:
	imull	$604269947, %eax, %edx
	cmpl	$158726, %edx
	jbe	.L6481
.L3042:
	imull	$1133378717, %eax, %edx
	cmpl	$158714, %edx
	jbe	.L6482
.L3043:
	imull	$-249760909, %eax, %edx
	cmpl	$158679, %edx
	jbe	.L6483
.L3044:
	imull	$-1143822783, %eax, %edx
	cmpl	$158643, %edx
	jbe	.L6484
.L3045:
	imull	$1963404557, %eax, %edx
	cmpl	$158620, %edx
	jbe	.L6485
.L3046:
	imull	$411883099, %eax, %edx
	cmpl	$158538, %edx
	jbe	.L6486
.L3047:
	imull	$-223440353, %eax, %edx
	cmpl	$158468, %edx
	jbe	.L6487
.L3048:
	imull	$413541323, %eax, %edx
	cmpl	$158444, %edx
	jbe	.L6488
.L3049:
	imull	$523938797, %eax, %edx
	cmpl	$158433, %edx
	jbe	.L6489
.L3050:
	imull	$310323143, %eax, %edx
	cmpl	$158328, %edx
	jbe	.L6490
.L3051:
	imull	$-1529814089, %eax, %edx
	cmpl	$158234, %edx
	jbe	.L6491
.L3052:
	imull	$-1897724797, %eax, %edx
	cmpl	$158025, %edx
	jbe	.L6492
.L3053:
	imull	$-634033273, %eax, %edx
	cmpl	$157955, %edx
	jbe	.L6493
.L3054:
	imull	$2003696917, %eax, %edx
	cmpl	$157920, %edx
	jbe	.L6494
.L3055:
	imull	$1929744227, %eax, %edx
	cmpl	$157839, %edx
	jbe	.L6495
.L3056:
	imull	$134025559, %eax, %edx
	cmpl	$157677, %edx
	jbe	.L6496
.L3057:
	imull	$1498138073, %eax, %edx
	cmpl	$157665, %edx
	jbe	.L6497
.L3058:
	imull	$2033620445, %eax, %edx
	cmpl	$157596, %edx
	jbe	.L6498
.L3059:
	imull	$-56564557, %eax, %edx
	cmpl	$157561, %edx
	jbe	.L6499
.L3060:
	imull	$-389792969, %eax, %edx
	cmpl	$157492, %edx
	jbe	.L6500
.L3061:
	imull	$-578656187, %eax, %edx
	cmpl	$157457, %edx
	jbe	.L6501
.L3062:
	imull	$-1688168847, %eax, %edx
	cmpl	$157434, %edx
	jbe	.L6502
.L3063:
	imull	$1184449435, %eax, %edx
	cmpl	$157422, %edx
	jbe	.L6503
.L3064:
	imull	$-2101307125, %eax, %edx
	cmpl	$157330, %edx
	jbe	.L6504
.L3065:
	imull	$1094133057, %eax, %edx
	cmpl	$157157, %edx
	jbe	.L6505
.L3066:
	imull	$-1286746247, %eax, %edx
	cmpl	$157111, %edx
	jbe	.L6506
.L3067:
	imull	$1846171937, %eax, %edx
	cmpl	$156974, %edx
	jbe	.L6507
.L3068:
	imull	$1582893271, %eax, %edx
	cmpl	$156939, %edx
	jbe	.L6508
.L3069:
	imull	$-868963891, %eax, %edx
	cmpl	$156767, %edx
	jbe	.L6509
.L3070:
	imull	$58139631, %eax, %edx
	cmpl	$156710, %edx
	jbe	.L6510
.L3071:
	imull	$8775153, %eax, %edx
	cmpl	$156699, %edx
	jbe	.L6511
.L3072:
	imull	$194649227, %eax, %edx
	cmpl	$156596, %edx
	jbe	.L6512
.L3073:
	imull	$-39299945, %eax, %edx
	cmpl	$156573, %edx
	jbe	.L6513
.L3074:
	imull	$2102008997, %eax, %edx
	cmpl	$156539, %edx
	jbe	.L6514
.L3075:
	imull	$1027543817, %eax, %edx
	cmpl	$156470, %edx
	jbe	.L6515
.L3076:
	imull	$203039937, %eax, %edx
	cmpl	$156425, %edx
	jbe	.L6516
.L3077:
	imull	$1839181927, %eax, %edx
	cmpl	$156299, %edx
	jbe	.L6517
.L3078:
	imull	$1076047081, %eax, %edx
	cmpl	$156288, %edx
	jbe	.L6518
.L3079:
	imull	$1033154719, %eax, %edx
	cmpl	$156254, %edx
	jbe	.L6519
.L3080:
	imull	$1538968797, %eax, %edx
	cmpl	$156129, %edx
	jbe	.L6520
.L3081:
	imull	$1749379639, %eax, %edx
	cmpl	$156027, %edx
	jbe	.L6521
.L3082:
	imull	$-1927578951, %eax, %edx
	cmpl	$156016, %edx
	jbe	.L6522
.L3083:
	imull	$1752984219, %eax, %edx
	cmpl	$155959, %edx
	jbe	.L6523
.L3084:
	imull	$367101885, %eax, %edx
	cmpl	$155948, %edx
	jbe	.L6524
.L3085:
	imull	$1345187935, %eax, %edx
	cmpl	$155891, %edx
	jbe	.L6525
.L3086:
	imull	$-496130155, %eax, %edx
	cmpl	$155721, %edx
	jbe	.L6526
.L3087:
	imull	$694780991, %eax, %edx
	cmpl	$155710, %edx
	jbe	.L6527
.L3088:
	imull	$2036963411, %eax, %edx
	cmpl	$155552, %edx
	jbe	.L6528
.L3089:
	imull	$-1468721119, %eax, %edx
	cmpl	$155518, %edx
	jbe	.L6529
.L3090:
	imull	$-901242097, %eax, %edx
	cmpl	$155440, %edx
	jbe	.L6530
.L3091:
	imull	$309302271, %eax, %edx
	cmpl	$155350, %edx
	jbe	.L6531
.L3092:
	imull	$-88375091, %eax, %edx
	cmpl	$155316, %edx
	jbe	.L6532
.L3093:
	imull	$-1640353751, %eax, %edx
	cmpl	$155204, %edx
	jbe	.L6533
.L3094:
	imull	$670560281, %eax, %edx
	cmpl	$155114, %edx
	jbe	.L6534
.L3095:
	imull	$546894467, %eax, %edx
	cmpl	$155103, %edx
	jbe	.L6535
.L3096:
	imull	$-1200395055, %eax, %edx
	cmpl	$155069, %edx
	jbe	.L6536
.L3097:
	imull	$1947239965, %eax, %edx
	cmpl	$155047, %edx
	jbe	.L6537
.L3098:
	imull	$1932603645, %eax, %edx
	cmpl	$154868, %edx
	jbe	.L6538
.L3099:
	imull	$1336941545, %eax, %edx
	cmpl	$154846, %edx
	jbe	.L6539
.L3100:
	imull	$-78191661, %eax, %edx
	cmpl	$154834, %edx
	jbe	.L6540
.L3101:
	imull	$1869672351, %eax, %edx
	cmpl	$154812, %edx
	jbe	.L6541
.L3102:
	imull	$1022780781, %eax, %edx
	cmpl	$154779, %edx
	jbe	.L6542
.L3103:
	imull	$2009198423, %eax, %edx
	cmpl	$154768, %edx
	jbe	.L6543
.L3104:
	imull	$-387835717, %eax, %edx
	cmpl	$154701, %edx
	jbe	.L6544
.L3105:
	imull	$1794583879, %eax, %edx
	cmpl	$154678, %edx
	jbe	.L6545
.L3106:
	imull	$-1942655787, %eax, %edx
	cmpl	$154645, %edx
	jbe	.L6546
.L3107:
	imull	$838615595, %eax, %edx
	cmpl	$154612, %edx
	jbe	.L6547
.L3108:
	imull	$1678979695, %eax, %edx
	cmpl	$154545, %edx
	jbe	.L6548
.L3109:
	imull	$1533596785, %eax, %edx
	cmpl	$154534, %edx
	jbe	.L6549
.L3110:
	imull	$-672541913, %eax, %edx
	cmpl	$154500, %edx
	jbe	.L6550
.L3111:
	imull	$1201379731, %eax, %edx
	cmpl	$154478, %edx
	jbe	.L6551
.L3112:
	imull	$-1235716255, %eax, %edx
	cmpl	$154445, %edx
	jbe	.L6552
.L3113:
	imull	$145291161, %eax, %edx
	cmpl	$154400, %edx
	jbe	.L6553
.L3114:
	imull	$-25007537, %eax, %edx
	cmpl	$154367, %edx
	jbe	.L6554
.L3115:
	imull	$791945851, %eax, %edx
	cmpl	$154345, %edx
	jbe	.L6555
.L3116:
	imull	$-39021321, %eax, %edx
	cmpl	$154234, %edx
	jbe	.L6556
.L3117:
	imull	$-1959421725, %eax, %edx
	cmpl	$154212, %edx
	jbe	.L6557
.L3118:
	imull	$1199627203, %eax, %edx
	cmpl	$154035, %edx
	jbe	.L3119
.L3121:
	cmpl	$778019448, %eax
	jbe	.L225
	imull	$-1479286947, %eax, %edx
	cmpl	$153980, %edx
	jbe	.L6558
.L3122:
	imull	$1895567445, %eax, %edx
	cmpl	$153935, %edx
	jbe	.L6559
.L3123:
	imull	$-876009019, %eax, %edx
	cmpl	$153847, %edx
	jbe	.L6560
.L3124:
	imull	$-465509905, %eax, %edx
	cmpl	$153836, %edx
	jbe	.L6561
.L3125:
	imull	$-1814305107, %eax, %edx
	cmpl	$153715, %edx
	jbe	.L6562
.L3126:
	imull	$-1025363305, %eax, %edx
	cmpl	$153704, %edx
	jbe	.L6563
.L3127:
	imull	$1464134019, %eax, %edx
	cmpl	$153682, %edx
	jbe	.L6564
.L3128:
	imull	$-2115908655, %eax, %edx
	cmpl	$153649, %edx
	jbe	.L6565
.L3129:
	imull	$-1275694839, %eax, %edx
	cmpl	$153605, %edx
	jbe	.L6566
.L3130:
	imull	$-936639809, %eax, %edx
	cmpl	$153572, %edx
	jbe	.L6567
.L3131:
	imull	$-1242920529, %eax, %edx
	cmpl	$153484, %edx
	jbe	.L6568
.L3132:
	imull	$-1106686219, %eax, %edx
	cmpl	$153408, %edx
	jbe	.L6569
.L3133:
	imull	$2057369249, %eax, %edx
	cmpl	$153386, %edx
	jbe	.L6570
.L3134:
	imull	$-1207140421, %eax, %edx
	cmpl	$153287, %edx
	jbe	.L6571
.L3135:
	imull	$279210419, %eax, %edx
	cmpl	$153243, %edx
	jbe	.L6572
.L3136:
	imull	$482955903, %eax, %edx
	cmpl	$153222, %edx
	jbe	.L6573
.L3137:
	imull	$1217706139, %eax, %edx
	cmpl	$153112, %edx
	jbe	.L6574
.L3138:
	imull	$1803589289, %eax, %edx
	cmpl	$153080, %edx
	jbe	.L6575
.L3139:
	imull	$-168775123, %eax, %edx
	cmpl	$153014, %edx
	jbe	.L6576
.L3140:
	imull	$-1446134959, %eax, %edx
	cmpl	$152949, %edx
	jbe	.L6577
.L3141:
	imull	$-1376249, %eax, %edx
	cmpl	$152916, %edx
	jbe	.L6578
.L3142:
	imull	$913351233, %eax, %edx
	cmpl	$152862, %edx
	jbe	.L6579
.L3143:
	imull	$1882057451, %eax, %edx
	cmpl	$152851, %edx
	jbe	.L6580
.L3144:
	imull	$-1380825339, %eax, %edx
	cmpl	$152796, %edx
	jbe	.L6581
.L3145:
	imull	$-773097169, %eax, %edx
	cmpl	$152786, %edx
	jbe	.L6582
.L3146:
	imull	$-2042640813, %eax, %edx
	cmpl	$152720, %edx
	jbe	.L6583
.L3147:
	imull	$-1694735417, %eax, %edx
	cmpl	$152568, %edx
	jbe	.L6584
.L3148:
	imull	$-1785058133, %eax, %edx
	cmpl	$152503, %edx
	jbe	.L6585
.L3149:
	imull	$1278538045, %eax, %edx
	cmpl	$152406, %edx
	jbe	.L6586
.L3150:
	imull	$-1423070809, %eax, %edx
	cmpl	$152395, %edx
	jbe	.L6587
.L3151:
	imull	$2052525593, %eax, %edx
	cmpl	$152298, %edx
	jbe	.L6588
.L3152:
	imull	$1128283387, %eax, %edx
	cmpl	$152244, %edx
	jbe	.L6589
.L3153:
	imull	$-1275446541, %eax, %edx
	cmpl	$152201, %edx
	jbe	.L6590
.L3154:
	imull	$-916687731, %eax, %edx
	cmpl	$152147, %edx
	jbe	.L6591
.L3155:
	imull	$92500445, %eax, %edx
	cmpl	$151889, %edx
	jbe	.L6592
.L3156:
	imull	$-1891644601, %eax, %edx
	cmpl	$151878, %edx
	jbe	.L6593
.L3157:
	imull	$2046574771, %eax, %edx
	cmpl	$151856, %edx
	jbe	.L6594
.L3158:
	imull	$-820915839, %eax, %edx
	cmpl	$151824, %edx
	jbe	.L6595
.L3159:
	imull	$-1010866247, %eax, %edx
	cmpl	$151781, %edx
	jbe	.L6596
.L3160:
	imull	$-1161175141, %eax, %edx
	cmpl	$151728, %edx
	jbe	.L6597
.L3161:
	imull	$-1131811651, %eax, %edx
	cmpl	$151717, %edx
	jbe	.L6598
.L3162:
	imull	$2054892895, %eax, %edx
	cmpl	$151663, %edx
	jbe	.L6599
.L3163:
	imull	$843873429, %eax, %edx
	cmpl	$151503, %edx
	jbe	.L6600
.L3164:
	imull	$1409941823, %eax, %edx
	cmpl	$151492, %edx
	jbe	.L6601
.L3165:
	imull	$858932939, %eax, %edx
	cmpl	$151300, %edx
	jbe	.L6602
.L3166:
	imull	$886131033, %eax, %edx
	cmpl	$151268, %edx
	jbe	.L6603
.L3167:
	imull	$2126993979, %eax, %edx
	cmpl	$151215, %edx
	jbe	.L6604
.L3168:
	imull	$-346361015, %eax, %edx
	cmpl	$151183, %edx
	jbe	.L6605
.L3169:
	imull	$-943166413, %eax, %edx
	cmpl	$151172, %edx
	jbe	.L6606
.L3170:
	imull	$-1655048251, %eax, %edx
	cmpl	$151076, %edx
	jbe	.L6607
.L3171:
	imull	$1096966641, %eax, %edx
	cmpl	$151055, %edx
	jbe	.L6608
.L3172:
	imull	$41531559, %eax, %edx
	cmpl	$151023, %edx
	jbe	.L6609
.L3173:
	imull	$119426271, %eax, %edx
	cmpl	$150981, %edx
	jbe	.L6610
.L3174:
	imull	$1269643215, %eax, %edx
	cmpl	$150896, %edx
	jbe	.L6611
.L3175:
	imull	$-1824497643, %eax, %edx
	cmpl	$150822, %edx
	jbe	.L6612
.L3176:
	imull	$1392664965, %eax, %edx
	cmpl	$150737, %edx
	jbe	.L6613
.L3177:
	imull	$-835212069, %eax, %edx
	cmpl	$150705, %edx
	jbe	.L6614
.L3178:
	imull	$-25004895, %eax, %edx
	cmpl	$150631, %edx
	jbe	.L6615
.L3179:
	imull	$-943576467, %eax, %edx
	cmpl	$150610, %edx
	jbe	.L6616
.L3180:
	imull	$-376714551, %eax, %edx
	cmpl	$150505, %edx
	jbe	.L6617
.L3181:
	imull	$-640761387, %eax, %edx
	cmpl	$150484, %edx
	jbe	.L6618
.L3182:
	imull	$-242378965, %eax, %edx
	cmpl	$150452, %edx
	jbe	.L6619
.L3183:
	imull	$810430797, %eax, %edx
	cmpl	$150441, %edx
	jbe	.L6620
.L3184:
	imull	$590729071, %eax, %edx
	cmpl	$150389, %edx
	jbe	.L6621
.L3185:
	imull	$-1457561965, %eax, %edx
	cmpl	$150326, %edx
	jbe	.L6622
.L3186:
	imull	$-228028747, %eax, %edx
	cmpl	$150315, %edx
	jbe	.L6623
.L3187:
	imull	$-604292085, %eax, %edx
	cmpl	$150284, %edx
	jbe	.L6624
.L3188:
	imull	$-1571010737, %eax, %edx
	cmpl	$150220, %edx
	jbe	.L6625
.L3189:
	imull	$980436637, %eax, %edx
	cmpl	$150189, %edx
	jbe	.L6626
.L3190:
	imull	$688323955, %eax, %edx
	cmpl	$150157, %edx
	jbe	.L6627
.L3191:
	imull	$-1187282881, %eax, %edx
	cmpl	$150136, %edx
	jbe	.L6628
.L3192:
	imull	$1019002339, %eax, %edx
	cmpl	$150073, %edx
	jbe	.L6629
.L3193:
	imull	$203035909, %eax, %edx
	cmpl	$150063, %edx
	jbe	.L6630
.L3194:
	imull	$-1579237285, %eax, %edx
	cmpl	$150032, %edx
	jbe	.L6631
.L3195:
	imull	$266269671, %eax, %edx
	cmpl	$150011, %edx
	jbe	.L6632
.L3196:
	imull	$167792075, %eax, %edx
	cmpl	$149948, %edx
	jbe	.L6633
.L3197:
	imull	$-356951975, %eax, %edx
	cmpl	$149916, %edx
	jbe	.L6634
.L3198:
	imull	$615686417, %eax, %edx
	cmpl	$149874, %edx
	jbe	.L6635
.L3199:
	imull	$-326532003, %eax, %edx
	cmpl	$149854, %edx
	jbe	.L6636
.L3200:
	imull	$-1638989369, %eax, %edx
	cmpl	$149843, %edx
	jbe	.L6637
.L3201:
	imull	$605840725, %eax, %edx
	cmpl	$149812, %edx
	jbe	.L6638
.L3202:
	imull	$1083211503, %eax, %edx
	cmpl	$149718, %edx
	jbe	.L6639
.L3203:
	imull	$-1540363223, %eax, %edx
	cmpl	$149666, %edx
	jbe	.L6640
.L3204:
	imull	$1200819167, %eax, %edx
	cmpl	$149634, %edx
	jbe	.L6641
.L3205:
	imull	$-316538985, %eax, %edx
	cmpl	$149593, %edx
	jbe	.L6642
.L3206:
	imull	$672140027, %eax, %edx
	cmpl	$149530, %edx
	jbe	.L6643
.L3207:
	imull	$-1899987447, %eax, %edx
	cmpl	$149499, %edx
	jbe	.L6644
.L3208:
	imull	$1126213295, %eax, %edx
	cmpl	$149384, %edx
	jbe	.L6645
.L3209:
	imull	$344905905, %eax, %edx
	cmpl	$149374, %edx
	jbe	.L6646
.L3210:
	imull	$2035252071, %eax, %edx
	cmpl	$149343, %edx
	jbe	.L6647
.L3211:
	imull	$1998426443, %eax, %edx
	cmpl	$149281, %edx
	jbe	.L6648
.L3212:
	imull	$1374019549, %eax, %edx
	cmpl	$149187, %edx
	jbe	.L6649
.L3213:
	imull	$131267017, %eax, %edx
	cmpl	$149167, %edx
	jbe	.L6650
.L3214:
	imull	$450712887, %eax, %edx
	cmpl	$149094, %edx
	jbe	.L6651
.L3215:
	imull	$-1857629627, %eax, %edx
	cmpl	$149063, %edx
	jbe	.L6652
.L3216:
	imull	$-1290710927, %eax, %edx
	cmpl	$149042, %edx
	jbe	.L6653
.L3217:
	imull	$-1128663251, %eax, %edx
	cmpl	$148939, %edx
	jbe	.L6654
.L3218:
	imull	$-490206717, %eax, %edx
	cmpl	$148908, %edx
	jbe	.L6655
.L3219:
	imull	$-1955572621, %eax, %edx
	cmpl	$148825, %edx
	jbe	.L6656
.L3220:
	imull	$792575979, %eax, %edx
	cmpl	$148784, %edx
	jbe	.L6657
.L3221:
	imull	$637751543, %eax, %edx
	cmpl	$148764, %edx
	jbe	.L6658
.L3222:
	imull	$-443640273, %eax, %edx
	cmpl	$148722, %edx
	jbe	.L6659
.L3223:
	imull	$-1576153875, %eax, %edx
	cmpl	$148609, %edx
	jbe	.L6660
.L3224:
	imull	$1005808869, %eax, %edx
	cmpl	$148568, %edx
	jbe	.L6661
.L3225:
	imull	$912871753, %eax, %edx
	cmpl	$148506, %edx
	jbe	.L6662
.L3226:
	imull	$2099154687, %eax, %edx
	cmpl	$148476, %edx
	jbe	.L6663
.L3227:
	imull	$-1672236083, %eax, %edx
	cmpl	$148445, %edx
	jbe	.L6664
.L3228:
	imull	$-599239107, %eax, %edx
	cmpl	$148363, %edx
	jbe	.L6665
.L3229:
	imull	$-1889512735, %eax, %edx
	cmpl	$148301, %edx
	jbe	.L6666
.L3230:
	imull	$385937915, %eax, %edx
	cmpl	$148209, %edx
	jbe	.L6667
.L3231:
	imull	$-1317701711, %eax, %edx
	cmpl	$148056, %edx
	jbe	.L6668
.L3232:
	imull	$-341915927, %eax, %edx
	cmpl	$148015, %edx
	jbe	.L6669
.L3233:
	imull	$704604917, %eax, %edx
	cmpl	$147995, %edx
	jbe	.L6670
.L3234:
	imull	$-2032129377, %eax, %edx
	cmpl	$147984, %edx
	jbe	.L6671
.L3235:
	imull	$1560582219, %eax, %edx
	cmpl	$147964, %edx
	jbe	.L6672
.L3236:
	imull	$-1167642919, %eax, %edx
	cmpl	$147933, %edx
	jbe	.L6673
.L3237:
	imull	$1951868203, %eax, %edx
	cmpl	$147801, %edx
	jbe	.L6674
.L3238:
	imull	$-550337481, %eax, %edx
	cmpl	$147781, %edx
	jbe	.L6675
.L3239:
	imull	$-1244900931, %eax, %edx
	cmpl	$147710, %edx
	jbe	.L6676
.L3240:
	imull	$2054429221, %eax, %edx
	cmpl	$147588, %edx
	jbe	.L6677
.L3241:
	imull	$-1148254485, %eax, %edx
	cmpl	$147476, %edx
	jbe	.L6678
.L3242:
	imull	$282359929, %eax, %edx
	cmpl	$147446, %edx
	jbe	.L6679
.L3243:
	imull	$-575001629, %eax, %edx
	cmpl	$147436, %edx
	jbe	.L6680
.L3244:
	imull	$1104512817, %eax, %edx
	cmpl	$147405, %edx
	jbe	.L6681
.L3245:
	imull	$83108435, %eax, %edx
	cmpl	$147355, %edx
	jbe	.L6682
.L3246:
	imull	$215978529, %eax, %edx
	cmpl	$147325, %edx
	jbe	.L6683
.L3247:
	imull	$-1572676337, %eax, %edx
	cmpl	$147254, %edx
	jbe	.L6684
.L3248:
	imull	$948564573, %eax, %edx
	cmpl	$147224, %edx
	jbe	.L6685
.L3249:
	imull	$1997861171, %eax, %edx
	cmpl	$147193, %edx
	jbe	.L6686
.L3250:
	imull	$1311398839, %eax, %edx
	cmpl	$147133, %edx
	jbe	.L6687
.L3251:
	imull	$271367921, %eax, %edx
	cmpl	$147082, %edx
	jbe	.L6688
.L3252:
	imull	$-1628314201, %eax, %edx
	cmpl	$147052, %edx
	jbe	.L6689
.L3253:
	imull	$232180265, %eax, %edx
	cmpl	$147042, %edx
	jbe	.L6690
.L3254:
	imull	$1588877741, %eax, %edx
	cmpl	$146982, %edx
	jbe	.L6691
.L3255:
	imull	$-557312817, %eax, %edx
	cmpl	$146931, %edx
	jbe	.L6692
.L3256:
	imull	$-1096837389, %eax, %edx
	cmpl	$146871, %edx
	jbe	.L6693
.L3257:
	imull	$448129643, %eax, %edx
	cmpl	$146831, %edx
	jbe	.L6694
.L3258:
	imull	$-934741251, %eax, %edx
	cmpl	$146741, %edx
	jbe	.L6695
.L3259:
	imull	$-1000306345, %eax, %edx
	cmpl	$146650, %edx
	jbe	.L6696
.L3260:
	imull	$634195601, %eax, %edx
	cmpl	$146600, %edx
	jbe	.L6697
.L3261:
	imull	$1375274823, %eax, %edx
	cmpl	$146570, %edx
	jbe	.L6698
.L3262:
	imull	$-114733697, %eax, %edx
	cmpl	$146530, %edx
	jbe	.L6699
.L3263:
	imull	$1843817583, %eax, %edx
	cmpl	$146450, %edx
	jbe	.L6700
.L3264:
	imull	$583780541, %eax, %edx
	cmpl	$146421, %edx
	jbe	.L6701
.L3265:
	imull	$1944658835, %eax, %edx
	cmpl	$146391, %edx
	jbe	.L6702
.L3266:
	imull	$-1639132917, %eax, %edx
	cmpl	$146351, %edx
	jbe	.L6703
.L3267:
	imull	$-164262789, %eax, %edx
	cmpl	$146271, %edx
	jbe	.L6704
.L3268:
	imull	$-738021641, %eax, %edx
	cmpl	$146171, %edx
	jbe	.L6705
.L3269:
	imull	$-278273309, %eax, %edx
	cmpl	$146151, %edx
	jbe	.L6706
.L3270:
	imull	$1258867205, %eax, %edx
	cmpl	$146142, %edx
	jbe	.L6707
.L3271:
	imull	$511615207, %eax, %edx
	cmpl	$146092, %edx
	jbe	.L6708
.L3272:
	imull	$-156308119, %eax, %edx
	cmpl	$146082, %edx
	jbe	.L6709
.L3273:
	imull	$-338795829, %eax, %edx
	cmpl	$146032, %edx
	jbe	.L6710
.L3274:
	imull	$109771791, %eax, %edx
	cmpl	$145973, %edx
	jbe	.L6711
.L3275:
	imull	$-1248253603, %eax, %edx
	cmpl	$145943, %edx
	jbe	.L6712
.L3276:
	imull	$-504972715, %eax, %edx
	cmpl	$145903, %edx
	jbe	.L6713
.L3277:
	imull	$-1236136021, %eax, %edx
	cmpl	$145873, %edx
	jbe	.L6714
.L3278:
	imull	$-1707895867, %eax, %edx
	cmpl	$145824, %edx
	jbe	.L6715
.L3279:
	imull	$1880150241, %eax, %edx
	cmpl	$145725, %edx
	jbe	.L6716
.L3280:
	imull	$112898947, %eax, %edx
	cmpl	$145676, %edx
	jbe	.L6717
.L3281:
	imull	$1460239381, %eax, %edx
	cmpl	$145587, %edx
	jbe	.L6718
.L3282:
	imull	$-1928058777, %eax, %edx
	cmpl	$145458, %edx
	jbe	.L6719
.L3283:
	imull	$1129481427, %eax, %edx
	cmpl	$145439, %edx
	jbe	.L6720
.L3284:
	imull	$-1017286495, %eax, %edx
	cmpl	$145409, %edx
	jbe	.L6721
.L3285:
	imull	$-50115457, %eax, %edx
	cmpl	$145262, %edx
	jbe	.L6722
.L3286:
	imull	$-2059678591, %eax, %edx
	cmpl	$145252, %edx
	jbe	.L6723
.L3287:
	imull	$1801030989, %eax, %edx
	cmpl	$145232, %edx
	jbe	.L6724
.L3288:
	imull	$630720325, %eax, %edx
	cmpl	$145193, %edx
	jbe	.L6725
.L3289:
	imull	$460169883, %eax, %edx
	cmpl	$145164, %edx
	jbe	.L6726
.L3290:
	imull	$-707532705, %eax, %edx
	cmpl	$145105, %edx
	jbe	.L6727
.L3291:
	imull	$-1710821629, %eax, %edx
	cmpl	$145046, %edx
	jbe	.L6728
.L3292:
	imull	$-540549227, %eax, %edx
	cmpl	$144958, %edx
	jbe	.L6729
.L3293:
	imull	$1268358209, %eax, %edx
	cmpl	$144938, %edx
	jbe	.L6730
.L3294:
	imull	$-1775888775, %eax, %edx
	cmpl	$144899, %edx
	jbe	.L6731
.L3295:
	imull	$638388255, %eax, %edx
	cmpl	$144792, %edx
	jbe	.L6732
.L3296:
	imull	$-953118227, %eax, %edx
	cmpl	$144762, %edx
	jbe	.L6733
.L3297:
	imull	$-1006178345, %eax, %edx
	cmpl	$144753, %edx
	jbe	.L6734
.L3298:
	imull	$849501499, %eax, %edx
	cmpl	$144694, %edx
	jbe	.L6735
.L3299:
	imull	$133544765, %eax, %edx
	cmpl	$144528, %edx
	jbe	.L3300
.L3302:
	cmpl	$883456728, %eax
	jbe	.L225
	imull	$-198687213, %eax, %edx
	cmpl	$144499, %edx
	jbe	.L6736
.L3303:
	imull	$1679948709, %eax, %edx
	cmpl	$144412, %edx
	jbe	.L6737
.L3304:
	imull	$-388023799, %eax, %edx
	cmpl	$144354, %edx
	jbe	.L6738
.L3305:
	imull	$-2005828673, %eax, %edx
	cmpl	$144324, %edx
	jbe	.L6739
.L3306:
	imull	$1946524609, %eax, %edx
	cmpl	$144315, %edx
	jbe	.L6740
.L3307:
	imull	$-3604491, %eax, %edx
	cmpl	$144179, %edx
	jbe	.L6741
.L3308:
	imull	$281450563, %eax, %edx
	cmpl	$144111, %edx
	jbe	.L6742
.L3309:
	imull	$437865139, %eax, %edx
	cmpl	$144034, %edx
	jbe	.L6743
.L3310:
	imull	$-1238548039, %eax, %edx
	cmpl	$143966, %edx
	jbe	.L6744
.L3311:
	imull	$536636997, %eax, %edx
	cmpl	$143947, %edx
	jbe	.L6745
.L3312:
	imull	$34099603, %eax, %edx
	cmpl	$143880, %edx
	jbe	.L6746
.L3313:
	imull	$223212311, %eax, %edx
	cmpl	$143822, %edx
	jbe	.L6747
.L3314:
	imull	$864544259, %eax, %edx
	cmpl	$143803, %edx
	jbe	.L6748
.L3315:
	imull	$1793152081, %eax, %edx
	cmpl	$143774, %edx
	jbe	.L6749
.L3316:
	imull	$1418766599, %eax, %edx
	cmpl	$143745, %edx
	jbe	.L6750
.L3317:
	imull	$-571780727, %eax, %edx
	cmpl	$143735, %edx
	jbe	.L6751
.L3318:
	imull	$-1956904075, %eax, %edx
	cmpl	$143562, %edx
	jbe	.L6752
.L3319:
	imull	$-1873817823, %eax, %edx
	cmpl	$143543, %edx
	jbe	.L6753
.L3320:
	imull	$-1633198377, %eax, %edx
	cmpl	$143514, %edx
	jbe	.L6754
.L3321:
	imull	$-613976525, %eax, %edx
	cmpl	$143418, %edx
	jbe	.L6755
.L3322:
	imull	$603121847, %eax, %edx
	cmpl	$143361, %edx
	jbe	.L6756
.L3323:
	imull	$-696465697, %eax, %edx
	cmpl	$143246, %edx
	jbe	.L6757
.L3324:
	imull	$-1500209491, %eax, %edx
	cmpl	$143218, %edx
	jbe	.L6758
.L3325:
	imull	$140680179, %eax, %edx
	cmpl	$143113, %edx
	jbe	.L6759
.L3326:
	imull	$1930037781, %eax, %edx
	cmpl	$143103, %edx
	jbe	.L6760
.L3327:
	imull	$37473157, %eax, %edx
	cmpl	$143027, %edx
	jbe	.L6761
.L3328:
	imull	$580200095, %eax, %edx
	cmpl	$142941, %edx
	jbe	.L6762
.L3329:
	imull	$721424195, %eax, %edx
	cmpl	$142884, %edx
	jbe	.L6763
.L3330:
	imull	$-236522425, %eax, %edx
	cmpl	$142827, %edx
	jbe	.L6764
.L3331:
	imull	$-610365255, %eax, %edx
	cmpl	$142742, %edx
	jbe	.L6765
.L3332:
	imull	$-1843819997, %eax, %edx
	cmpl	$142732, %edx
	jbe	.L6766
.L3333:
	imull	$-438244495, %eax, %edx
	cmpl	$142704, %edx
	jbe	.L6767
.L3334:
	imull	$-956212697, %eax, %edx
	cmpl	$142675, %edx
	jbe	.L6768
.L3335:
	imull	$-529221451, %eax, %edx
	cmpl	$142647, %edx
	jbe	.L6769
.L3336:
	imull	$-471814559, %eax, %edx
	cmpl	$142628, %edx
	jbe	.L6770
.L3337:
	imull	$-634854889, %eax, %edx
	cmpl	$142599, %edx
	jbe	.L6771
.L3338:
	imull	$1488621725, %eax, %edx
	cmpl	$142533, %edx
	jbe	.L6772
.L3339:
	imull	$-565641079, %eax, %edx
	cmpl	$142514, %edx
	jbe	.L6773
.L3340:
	imull	$2064189299, %eax, %edx
	cmpl	$142505, %edx
	jbe	.L6774
.L3341:
	imull	$1342702385, %eax, %edx
	cmpl	$142401, %edx
	jbe	.L6775
.L3342:
	imull	$-1380926871, %eax, %edx
	cmpl	$142363, %edx
	jbe	.L6776
.L3343:
	imull	$1331281901, %eax, %edx
	cmpl	$142306, %edx
	jbe	.L6777
.L3344:
	imull	$-1486812477, %eax, %edx
	cmpl	$142278, %edx
	jbe	.L6778
.L3345:
	imull	$-1056780707, %eax, %edx
	cmpl	$142231, %edx
	jbe	.L6779
.L3346:
	imull	$1703169331, %eax, %edx
	cmpl	$142203, %edx
	jbe	.L6780
.L3347:
	imull	$1619551403, %eax, %edx
	cmpl	$142165, %edx
	jbe	.L6781
.L3348:
	imull	$-388384529, %eax, %edx
	cmpl	$142109, %edx
	jbe	.L6782
.L3349:
	imull	$1569230305, %eax, %edx
	cmpl	$142024, %edx
	jbe	.L6783
.L3350:
	imull	$1604667813, %eax, %edx
	cmpl	$141968, %edx
	jbe	.L6784
.L3351:
	imull	$-1357941509, %eax, %edx
	cmpl	$141940, %edx
	jbe	.L6785
.L3352:
	imull	$-1970188011, %eax, %edx
	cmpl	$141893, %edx
	jbe	.L6786
.L3353:
	imull	$-1354991169, %eax, %edx
	cmpl	$141883, %edx
	jbe	.L6787
.L3354:
	imull	$-1977559299, %eax, %edx
	cmpl	$141780, %edx
	jbe	.L6788
.L3355:
	imull	$-251544757, %eax, %edx
	cmpl	$141715, %edx
	jbe	.L6789
.L3356:
	imull	$-1107002919, %eax, %edx
	cmpl	$141687, %edx
	jbe	.L6790
.L3357:
	imull	$-1194612593, %eax, %edx
	cmpl	$141659, %edx
	jbe	.L6791
.L3358:
	imull	$219684539, %eax, %edx
	cmpl	$141640, %edx
	jbe	.L6792
.L3359:
	imull	$-241495475, %eax, %edx
	cmpl	$141556, %edx
	jbe	.L6793
.L3360:
	imull	$382976291, %eax, %edx
	cmpl	$141528, %edx
	jbe	.L6794
.L3361:
	imull	$-571398817, %eax, %edx
	cmpl	$141435, %edx
	jbe	.L6795
.L3362:
	imull	$-276871267, %eax, %edx
	cmpl	$141332, %edx
	jbe	.L6796
.L3363:
	imull	$-1989130489, %eax, %edx
	cmpl	$141323, %edx
	jbe	.L6797
.L3364:
	imull	$-1981847061, %eax, %edx
	cmpl	$141267, %edx
	jbe	.L6798
.L3365:
	imull	$-1580952237, %eax, %edx
	cmpl	$141156, %edx
	jbe	.L6799
.L3366:
	imull	$1116259615, %eax, %edx
	cmpl	$141137, %edx
	jbe	.L6800
.L3367:
	imull	$-1268925935, %eax, %edx
	cmpl	$141054, %edx
	jbe	.L6801
.L3368:
	imull	$-2121192533, %eax, %edx
	cmpl	$140971, %edx
	jbe	.L6802
.L3369:
	imull	$-1873101363, %eax, %edx
	cmpl	$140961, %edx
	jbe	.L6803
.L3370:
	imull	$-249885933, %eax, %edx
	cmpl	$140860, %edx
	jbe	.L6804
.L3371:
	imull	$921305909, %eax, %edx
	cmpl	$140850, %edx
	jbe	.L6805
.L3372:
	imull	$-527840031, %eax, %edx
	cmpl	$140832, %edx
	jbe	.L6806
.L3373:
	imull	$998109349, %eax, %edx
	cmpl	$140777, %edx
	jbe	.L6807
.L3374:
	imull	$-1332387043, %eax, %edx
	cmpl	$140740, %edx
	jbe	.L6808
.L3375:
	imull	$-1904731967, %eax, %edx
	cmpl	$140684, %edx
	jbe	.L6809
.L3376:
	imull	$-1120609693, %eax, %edx
	cmpl	$140638, %edx
	jbe	.L6810
.L3377:
	imull	$-1591582487, %eax, %edx
	cmpl	$140574, %edx
	jbe	.L6811
.L3378:
	imull	$2013041909, %eax, %edx
	cmpl	$140555, %edx
	jbe	.L6812
.L3379:
	imull	$1726194847, %eax, %edx
	cmpl	$140546, %edx
	jbe	.L6813
.L3380:
	imull	$1898932625, %eax, %edx
	cmpl	$140463, %edx
	jbe	.L6814
.L3381:
	imull	$1307035777, %eax, %edx
	cmpl	$140390, %edx
	jbe	.L6815
.L3382:
	imull	$-284639209, %eax, %edx
	cmpl	$140216, %edx
	jbe	.L6816
.L3383:
	imull	$-128973787, %eax, %edx
	cmpl	$140188, %edx
	jbe	.L6817
.L3384:
	imull	$-223277189, %eax, %edx
	cmpl	$140161, %edx
	jbe	.L6818
.L3385:
	imull	$-2095423863, %eax, %edx
	cmpl	$140134, %edx
	jbe	.L6819
.L3386:
	imull	$-1726615795, %eax, %edx
	cmpl	$140079, %edx
	jbe	.L6820
.L3387:
	imull	$388312879, %eax, %edx
	cmpl	$140033, %edx
	jbe	.L6821
.L3388:
	imull	$-606926467, %eax, %edx
	cmpl	$140006, %edx
	jbe	.L6822
.L3389:
	imull	$479333409, %eax, %edx
	cmpl	$139951, %edx
	jbe	.L6823
.L3390:
	imull	$1652674649, %eax, %edx
	cmpl	$139914, %edx
	jbe	.L6824
.L3391:
	imull	$-1485465841, %eax, %edx
	cmpl	$139887, %edx
	jbe	.L6825
.L3392:
	imull	$-2027685573, %eax, %edx
	cmpl	$139869, %edx
	jbe	.L6826
.L3393:
	imull	$1975687753, %eax, %edx
	cmpl	$139841, %edx
	jbe	.L6827
.L3394:
	imull	$653882807, %eax, %edx
	cmpl	$139778, %edx
	jbe	.L6828
.L3395:
	imull	$2091836333, %eax, %edx
	cmpl	$139641, %edx
	jbe	.L6829
.L3396:
	imull	$-661354877, %eax, %edx
	cmpl	$139614, %edx
	jbe	.L6830
.L3397:
	imull	$-831972835, %eax, %edx
	cmpl	$139569, %edx
	jbe	.L6831
.L3398:
	imull	$246275861, %eax, %edx
	cmpl	$139533, %edx
	jbe	.L6832
.L3399:
	imull	$-1339257893, %eax, %edx
	cmpl	$139433, %edx
	jbe	.L6833
.L3400:
	imull	$268914665, %eax, %edx
	cmpl	$139406, %edx
	jbe	.L6834
.L3401:
	imull	$-319018079, %eax, %edx
	cmpl	$139370, %edx
	jbe	.L6835
.L3402:
	imull	$2060341605, %eax, %edx
	cmpl	$139315, %edx
	jbe	.L6836
.L3403:
	imull	$-680337081, %eax, %edx
	cmpl	$139270, %edx
	jbe	.L6837
.L3404:
	imull	$689205705, %eax, %edx
	cmpl	$139261, %edx
	jbe	.L6838
.L3405:
	imull	$1782945323, %eax, %edx
	cmpl	$139216, %edx
	jbe	.L6839
.L3406:
	imull	$-988233651, %eax, %edx
	cmpl	$139207, %edx
	jbe	.L6840
.L3407:
	imull	$-919982301, %eax, %edx
	cmpl	$139180, %edx
	jbe	.L6841
.L3408:
	imull	$-589655363, %eax, %edx
	cmpl	$139135, %edx
	jbe	.L6842
.L3409:
	imull	$-1491433689, %eax, %edx
	cmpl	$139126, %edx
	jbe	.L6843
.L3410:
	imull	$-519607455, %eax, %edx
	cmpl	$139081, %edx
	jbe	.L6844
.L3411:
	imull	$-939545819, %eax, %edx
	cmpl	$139027, %edx
	jbe	.L6845
.L3412:
	imull	$-618727617, %eax, %edx
	cmpl	$138946, %edx
	jbe	.L6846
.L3413:
	imull	$-1177641125, %eax, %edx
	cmpl	$138856, %edx
	jbe	.L6847
.L3414:
	imull	$1412728681, %eax, %edx
	cmpl	$138829, %edx
	jbe	.L6848
.L3415:
	imull	$-799137931, %eax, %edx
	cmpl	$138811, %edx
	jbe	.L6849
.L3416:
	imull	$-894270227, %eax, %edx
	cmpl	$138775, %edx
	jbe	.L6850
.L3417:
	imull	$-1445014989, %eax, %edx
	cmpl	$138677, %edx
	jbe	.L6851
.L3418:
	imull	$271615745, %eax, %edx
	cmpl	$138650, %edx
	jbe	.L6852
.L3419:
	imull	$2039981239, %eax, %edx
	cmpl	$138623, %edx
	jbe	.L6853
.L3420:
	imull	$-1780417875, %eax, %edx
	cmpl	$138489, %edx
	jbe	.L6854
.L3421:
	imull	$-775389821, %eax, %edx
	cmpl	$138462, %edx
	jbe	.L6855
.L3422:
	imull	$-1029004023, %eax, %edx
	cmpl	$138400, %edx
	jbe	.L6856
.L3423:
	imull	$1897789119, %eax, %edx
	cmpl	$138373, %edx
	jbe	.L6857
.L3424:
	imull	$1553746019, %eax, %edx
	cmpl	$138319, %edx
	jbe	.L6858
.L3425:
	imull	$62358119, %eax, %edx
	cmpl	$138266, %edx
	jbe	.L6859
.L3426:
	imull	$-288644363, %eax, %edx
	cmpl	$138239, %edx
	jbe	.L6860
.L3427:
	imull	$1045860951, %eax, %edx
	cmpl	$138195, %edx
	jbe	.L6861
.L3428:
	imull	$-2029541671, %eax, %edx
	cmpl	$138186, %edx
	jbe	.L6862
.L3429:
	imull	$14504891, %eax, %edx
	cmpl	$138141, %edx
	jbe	.L6863
.L3430:
	imull	$-665753743, %eax, %edx
	cmpl	$138008, %edx
	jbe	.L6864
.L3431:
	imull	$1243516059, %eax, %edx
	cmpl	$137999, %edx
	jbe	.L6865
.L3432:
	imull	$-1001225717, %eax, %edx
	cmpl	$137928, %edx
	jbe	.L6866
.L3433:
	imull	$-97076989, %eax, %edx
	cmpl	$137893, %edx
	jbe	.L6867
.L3434:
	imull	$1318092111, %eax, %edx
	cmpl	$137875, %edx
	jbe	.L6868
.L3435:
	imull	$-1071501487, %eax, %edx
	cmpl	$137866, %edx
	jbe	.L6869
.L3436:
	imull	$-925322233, %eax, %edx
	cmpl	$137840, %edx
	jbe	.L6870
.L3437:
	imull	$1305145465, %eax, %edx
	cmpl	$137760, %edx
	jbe	.L6871
.L3438:
	imull	$-1497818363, %eax, %edx
	cmpl	$137743, %edx
	jbe	.L6872
.L3439:
	imull	$-1999901393, %eax, %edx
	cmpl	$137734, %edx
	jbe	.L6873
.L3440:
	imull	$-2057767043, %eax, %edx
	cmpl	$137707, %edx
	jbe	.L6874
.L3441:
	imull	$2051307113, %eax, %edx
	cmpl	$137690, %edx
	jbe	.L6875
.L3442:
	imull	$-930560197, %eax, %edx
	cmpl	$137575, %edx
	jbe	.L6876
.L3443:
	imull	$-1514924089, %eax, %edx
	cmpl	$137557, %edx
	jbe	.L6877
.L3444:
	imull	$-1646557697, %eax, %edx
	cmpl	$137522, %edx
	jbe	.L6878
.L3445:
	imull	$315966157, %eax, %edx
	cmpl	$137496, %edx
	jbe	.L6879
.L3446:
	imull	$202192111, %eax, %edx
	cmpl	$137452, %edx
	jbe	.L6880
.L3447:
	imull	$-277498127, %eax, %edx
	cmpl	$137443, %edx
	jbe	.L6881
.L3448:
	imull	$706643261, %eax, %edx
	cmpl	$137425, %edx
	jbe	.L6882
.L3449:
	imull	$1918095379, %eax, %edx
	cmpl	$137399, %edx
	jbe	.L6883
.L3450:
	imull	$1466500491, %eax, %edx
	cmpl	$137364, %edx
	jbe	.L6884
.L3451:
	imull	$-2043718249, %eax, %edx
	cmpl	$137346, %edx
	jbe	.L6885
.L3452:
	imull	$2137253285, %eax, %edx
	cmpl	$137320, %edx
	jbe	.L6886
.L3453:
	imull	$-771686557, %eax, %edx
	cmpl	$137188, %edx
	jbe	.L6887
.L3454:
	imull	$1181290855, %eax, %edx
	cmpl	$137136, %edx
	jbe	.L6888
.L3455:
	imull	$-1431884311, %eax, %edx
	cmpl	$137127, %edx
	jbe	.L6889
.L3456:
	imull	$-1704304225, %eax, %edx
	cmpl	$137101, %edx
	jbe	.L6890
.L3457:
	imull	$384083821, %eax, %edx
	cmpl	$137074, %edx
	jbe	.L6891
.L3458:
	imull	$-953371175, %eax, %edx
	cmpl	$137057, %edx
	jbe	.L6892
.L3459:
	imull	$-1914155307, %eax, %edx
	cmpl	$136969, %edx
	jbe	.L6893
.L3460:
	imull	$-1583631461, %eax, %edx
	cmpl	$136873, %edx
	jbe	.L6894
.L3461:
	imull	$-1971987565, %eax, %edx
	cmpl	$136839, %edx
	jbe	.L6895
.L3462:
	imull	$-1787027105, %eax, %edx
	cmpl	$136821, %edx
	jbe	.L6896
.L3463:
	imull	$-518657695, %eax, %edx
	cmpl	$136812, %edx
	jbe	.L6897
.L3464:
	imull	$29547821, %eax, %edx
	cmpl	$136795, %edx
	jbe	.L6898
.L3465:
	imull	$-2028539163, %eax, %edx
	cmpl	$136482, %edx
	jbe	.L6899
.L3466:
	imull	$796582237, %eax, %edx
	cmpl	$136447, %edx
	jbe	.L6900
.L3467:
	imull	$-1519835319, %eax, %edx
	cmpl	$136430, %edx
	jbe	.L6901
.L3468:
	imull	$941131009, %eax, %edx
	cmpl	$136395, %edx
	jbe	.L6902
.L3469:
	imull	$-1014076249, %eax, %edx
	cmpl	$136300, %edx
	jbe	.L6903
.L3470:
	imull	$726708521, %eax, %edx
	cmpl	$136291, %edx
	jbe	.L6904
.L3471:
	imull	$-1500111051, %eax, %edx
	cmpl	$136274, %edx
	jbe	.L6905
.L3472:
	imull	$-908956797, %eax, %edx
	cmpl	$136214, %edx
	jbe	.L6906
.L3473:
	imull	$-283099363, %eax, %edx
	cmpl	$136170, %edx
	jbe	.L6907
.L3474:
	imull	$-2068305273, %eax, %edx
	cmpl	$136162, %edx
	jbe	.L6908
.L3475:
	imull	$-2105891341, %eax, %edx
	cmpl	$136145, %edx
	jbe	.L6909
.L3476:
	imull	$-157828177, %eax, %edx
	cmpl	$136058, %edx
	jbe	.L6910
.L3477:
	imull	$-475026947, %eax, %edx
	cmpl	$136032, %edx
	jbe	.L6911
.L3478:
	imull	$-328687457, %eax, %edx
	cmpl	$135989, %edx
	jbe	.L6912
.L3479:
	imull	$321840529, %eax, %edx
	cmpl	$135912, %edx
